"File: main.c        Assembler  Version HGASM0202      Page 1


   1  0000              ; Generated by holtek-gcc v3.19, Thu Jul 11 10:17:59 2024
   2  0000              ; 
   3  0000              ; Configuration:
   4  0000              ;       with long instruction
   5  0000              ;       Multi-ROM, Multi-RAM
   6  0000              ;       bits_per_rom_unit:16
   7  0000              ;       with mp1
   8  0000              ;       with tbhp, address(0x9)
   9  0000              ;          Use tabrd-const
  10  0000              ;       
  11  0000              ; SFR address of long-instruction arch:
  12  0000              ;    mp0 = -1,1,0
  13  0000              ;    mp1 = 4,3,2
  14  0000              ;    mp2 = 14,13,12
  15  0000              ;    tbp = 9,7,8
  16  0000              ;    acc = 5
  17  0000              ;    pcl = 6
  18  0000              ;    status = 10
  19  0000              ;    bp = 11
  20  0000              ;    intc = 16
  21  0000              ;       
  22  0000              ;       
  23  0000              ; use 'tabrdc' instead of 'tabrd'
  24  0000              ;       
  25  0000              
  26  0000              #pragma translator "holtek-gcc 4.6.4" "3.19" "build 20130711"
  27  0000              ; Rebuild 718
  28  0000              
  29  0000              ir equ [2]
  30  0000              mp equ [3]
  31  0000              sbp equ [4]
  32  0000              acc equ [5]
  33  0000              bp equ [11]
  34  0000              tblp equ [7]
  35  0000              tbhp equ [9]
  36  0000              status equ [10]
  37  0000              c equ [10].0
  38  0000              ac equ [10].1
  39  0000              z equ [10].2
  40  0000              ov equ [10].3
  41  0000              cz equ [10].6
  42  0000              sc equ [10].7
  43  0000              intc equ [16]
  44  0000              mduwr0 equ [59h]
  45  0000              mduwr1 equ [5ah]
  46  0000              mduwr2 equ [5bh]
  47  0000              mduwr3 equ [5ch]
  48  0000              mduwr4 equ [5dh]
  49  0000              mduwr5 equ [5eh]
  50  0000              mduwrctrl equ [5fh]
  51  0000              
  52  0000              extern ra:byte
  53  0000              extern rb:byte
  54  0000              extern rc:byte
  55  0000              extern rd:byte
  56  0000              extern re:byte
  57  0000              extern rf:byte
  58  0000              extern rg:byte
  59  0000              extern rh:byte
"File: main.ASM      Assembler  Version HGASM0202      Page 2

  60  0000              extern _Crom2Prom:near
  61  0000              extern _Crom2PromNext:near
  62  0000              
  63  0000              RAMBANK 0 @BITDATASEC, @BITDATASEC1
  64  0000              @HCCINIT	.section 'data'
  65  0000              @HCCINIT0	.section 'data'
  66  0000              @BITDATASEC	 .section 'data'
  67  0000              @BITDATASEC1	 .section 'data'
  68  0000              
  69  0000              #pragma debug scope 1 1
  70  0000              	extern __DELAY3:near
  71  0000              	extern __DELAYX3:near
  72  0000              	extern __DELAYX6:near
  73  0000              	extern __DELAYY5:near
  74  0000              	extern __DELAYY3:near
  75  0000              	extern _builtin_holtek_delay_2:byte
  76  0000              ___sadc0 equ [105]
  77  0000              ___sadoh equ [104]
  78  0000              ___sadol equ [103]
  79  0000              public _get_adc
  80  0000              #pragma debug scope 2 1

  26  0000              #line 26 "d:\htk\0530\main.c"
  26  0000              _get_adc .section 'code'
  26  0000              _get_adc proc
  26  0000  00              local _get_adc_2 db 1 dup(?)	; 0,1
  26  0000  0080     E  	mov ra,a
  26  0001  0080     R  	mov _get_adc_2[0],a
  26  0002              #pragma debug variable 8 2 _get_adc_2+0 "channel"
  27  0002              #line 27 "d:\htk\0530\main.c"
  27  0002  0700     E  	mov a,ra
  27  0003  0D30        	or a,48
  27  0004  00E9        	mov [105],a
  28  0005              #line 28 "d:\htk\0530\main.c"
  28  0005  33E9        	set [105].7
  29  0006              #line 29 "d:\htk\0530\main.c"
  29  0006  37E9        	clr [105].7
  29  0007              _L3:
  30  0007              #line 30 "d:\htk\0530\main.c"
  30  0007  3F69        	sz [105].6
  30  0008  2800     R  	jmp _L3
  31  0009              #line 31 "d:\htk\0530\main.c"
  31  0009  0768        	mov a,[104]
  31  000A  0080     E  	mov rc,a
  31  000B  1F00     E  	clr rb
  31  000C  0700     E  	mov a,rc
  31  000D  0080     R  	mov _adr[1],a
  31  000E  0767        	mov a,[103]
  31  000F  0500     E  	or a,rb
  31  0010  0080     R  	mov _adr[0],a
  32  0011              #line 32 "d:\htk\0530\main.c"
  32  0011  0700     R  	mov a,_adr[0]
  32  0012  0080     E  	mov rd,a
  32  0013  0700     R  	mov a,_adr[1]
  32  0014  0080     E  	mov re,a
  32  0015  1F00     E  	clr rf
  32  0016  1F00     E  	clr rg
  32  0017  0700     E  	mov a,rd
  32  0018  0080     E  	mov _builtin_holtek_mulsi3_2[0],a
  32  0019  0700     E  	mov a,re
"File: main.c        Assembler  Version HGASM0202      Page 3

  32  001A  0080     E  	mov _builtin_holtek_mulsi3_2[1],a
  32  001B  0700     E  	mov a,rf
  32  001C  0080     E  	mov _builtin_holtek_mulsi3_2[2],a
  32  001D  0700     E  	mov a,rg
  32  001E  0080     E  	mov _builtin_holtek_mulsi3_2[3],a
  32  001F  0F7A        	mov a,122
  32  0020  0080     E  	mov _builtin_holtek_mulsi3_2[4],a
  32  0021  0F00        	mov a,0
  32  0022  0080     E  	mov _builtin_holtek_mulsi3_2[5],a
  32  0023  0F00        	mov a,0
  32  0024  0080     E  	mov _builtin_holtek_mulsi3_2[6],a
  32  0025  0F00        	mov a,0
  32  0026  0080     E  	mov _builtin_holtek_mulsi3_2[7],a
  32  0027              	fcall _builtin_holtek_mulsi3
  32  002E  0700     E  	mov a,_builtin_holtek_mulsi3_2[8]
  32  002F  0080     E  	mov rd,a
  32  0030  0700     E  	mov a,_builtin_holtek_mulsi3_2[9]
  32  0031  0080     E  	mov re,a
  32  0032  0700     E  	mov a,_builtin_holtek_mulsi3_2[10]
  32  0033  0080     E  	mov rf,a
  32  0034  0700     E  	mov a,_builtin_holtek_mulsi3_2[11]
  32  0035  0080     E  	mov rg,a
  32  0036  1B10        	rrca intc
  32  0037  3410        	clr intc.0
  32  0038  0700     E  	mov a,rd
  32  0039  00D9        	mov mduwr0,a
  32  003A  0700     E  	mov a,re
  32  003B  00DA        	mov mduwr1,a
  32  003C  0700     E  	mov a,rf
  32  003D  00DB        	mov mduwr2,a
  32  003E  0700     E  	mov a,rg
  32  003F  00DC        	mov mduwr3,a
  32  0040  0F64        	mov a,100
  32  0041  00DD        	mov mduwr4,a
  32  0042  0F00        	mov a,0
  32  0043  00DE        	mov mduwr5,a
  32  0044  0F06        	mov a,6
  32  0045              _LI1:
  32  0045  1785        	sdz acc
  32  0046  2800     R  	jmp _LI1
  32  0047  0759        	mov a,mduwr0
  32  0048  0080     R  	mov _adv[0],a
  32  0049  075A        	mov a,mduwr1
  32  004A  0080     R  	mov _adv[1],a
  32  004B  075B        	mov a,mduwr2
  32  004C  0080     R  	mov _adv[2],a
  32  004D  075C        	mov a,mduwr3
  32  004E  0080     R  	mov _adv[3],a
  32  004F  3C0A        	sz c
  32  0050  3010        	set intc.0
  32  0051  0003        	ret
  32  0052              _get_adc endp
  32  0052              #line 32 "d:\htk\0530\main.c"
  32  0052              #pragma debug scope 1 1
  32  0052              public _update_adv
  32  0052              #pragma debug scope 3 1
  35  0052              #line 35 "d:\htk\0530\main.c"
  35  0000              _update_adv .section 'code'
  35  0000              _update_adv proc
  35  0000  0028[           local _update_adv_2 db 40 dup(?)	; 0,40
"File: main.c        Assembler  Version HGASM0202      Page 4

            00
            ]
  35  0028              #pragma debug array 42 14 8 3
  35  0028              #pragma debug array 42 14 8 3
  35  0028              #pragma debug variable 42 3 _update_adv_2+0 "adv_tmp"
  36  0028              #line 36 "d:\htk\0530\main.c"
  36  0000  0700     R  	mov a,_adv_h_ind[0]
  36  0001  0080     E  	mov ra,a
  36  0002  0700     E  	mov a,ra
  36  0003  0080     E  	mov rb,a
  36  0004  1F00     E  	clr rc
  36  0005  340A        	clr c
  36  0006  1A80     E  	rlc rb
  36  0007  1A80     E  	rlc rc
  36  0008  340A        	clr c
  36  0009  1A80     E  	rlc rb
  36  000A  1A80     E  	rlc rc
  36  000B  0F00     R  	mov a,low offset _adv_history
  36  000C  0300     E  	add a,rb
  36  000D  0083        	mov mp,a
  36  000E  0F00     R  	mov a,high offset _adv_history
  36  000F  1300     E  	adc a,rc
  36  0010  0084        	mov sbp,a
  36  0011  0700     R  	mov a,_adv[0]
  36  0012  0082        	mov ir,a
  36  0013  1483        	inc mp
  36  0014  0700     R  	mov a,_adv[1]
  36  0015  0082        	mov ir,a
  36  0016  1483        	inc mp
  36  0017  0700     R  	mov a,_adv[2]
  36  0018  0082        	mov ir,a
  36  0019  1483        	inc mp
  36  001A  0700     R  	mov a,_adv[3]
  36  001B  0082        	mov ir,a
  37  001C              #line 37 "d:\htk\0530\main.c"
  37  001C  1480     E  	inc ra
  37  001D  0700     E  	mov a,ra
  37  001E  0E07        	and a,7
  37  001F  0080     R  	mov _adv_h_ind[0],a
  37  0020  0F08        	mov a,8
  37  0021  0080     E  	mov ra,a
  40  0022              #line 40 "d:\htk\0530\main.c"
  40  0022  1F00     E  	clr rh
  40  0023              _L7:
  41  0023              #line 41 "d:\htk\0530\main.c"
  41  0023  0700     E  	mov a,rh
  41  0024  0080     E  	mov rb,a
  41  0025  1F00     E  	clr rc
  41  0026  3F85        	sz acc.7
  41  0027  1F80     E  	set rc
  41  0028  340A        	clr c
  41  0029  1A80     E  	rlc rb
  41  002A  1A80     E  	rlc rc
  41  002B  340A        	clr c
  41  002C  1A80     E  	rlc rb
  41  002D  1A80     E  	rlc rc
  41  002E  0F00     R  	mov a,low offset _adv_history
  41  002F  0300     E  	add a,rb
  41  0030  0083        	mov mp,a
  41  0031  0F00     R  	mov a,high offset _adv_history
"File: main.c        Assembler  Version HGASM0202      Page 5

  41  0032  1300     E  	adc a,rc
  41  0033  0084        	mov sbp,a
  41  0034              	fcall _Crom2Prom
  41  003B  0080     E  	mov rd,a
  41  003C              	fcall _Crom2PromNext
  41  0043  0080     E  	mov re,a
  41  0044              	fcall _Crom2PromNext
  41  004B  0080     E  	mov rf,a
  41  004C              	fcall _Crom2PromNext
  41  0053  0080     E  	mov rg,a
  41  0054  0F00     R  	mov a,low(offset _update_adv_2)
  41  0055  0300     E  	add a,rb
  41  0056  0083        	mov mp,a
  41  0057  0F00     R  	mov a,high(offset _update_adv_2)
  41  0058  1300     E  	adc a,rc
  41  0059  0084        	mov sbp,a
  41  005A  0700     E  	mov a,rd
  41  005B  0082        	mov ir,a
  41  005C  1483        	inc mp
  41  005D  0700     E  	mov a,re
  41  005E  0082        	mov ir,a
  41  005F  1483        	inc mp
  41  0060  0700     E  	mov a,rf
  41  0061  0082        	mov ir,a
  41  0062  1483        	inc mp
  41  0063  0700     E  	mov a,rg
  41  0064  0082        	mov ir,a
  40  0065              #line 40 "d:\htk\0530\main.c"
  40  0065  1480     E  	inc rh
  40  0066  1780     E  	sdz ra
  40  0067  2800     R  	jmp _L7
  44  0068              #line 44 "d:\htk\0530\main.c"
  44  0068  0F04        	mov a,4
  44  0069  0080     E  	mov _qsort_2[4],a
  44  006A  1F00     E  	clr _qsort_2[5]
  44  006B  0F08        	mov a,8
  44  006C  0080     E  	mov _qsort_2[2],a
  44  006D  1F00     E  	clr _qsort_2[3]
  44  006E  0F00     R  	mov a,low offset _update_adv_2
  44  006F  0080     E  	mov _qsort_2[0],a
  44  0070  0F00     R  	mov a,high offset _update_adv_2
  44  0071  0080     E  	mov _qsort_2[1],a
  44  0072              	fcall _qsort
  45  0079              #line 45 "d:\htk\0530\main.c"
  45  0079  0700     R  	mov a,_update_adv_2[16]
  45  007A  0080     E  	mov ra,a
  45  007B  0700     R  	mov a,_update_adv_2[17]
  45  007C  0080     E  	mov rb,a
  45  007D  0700     R  	mov a,_update_adv_2[18]
  45  007E  0080     E  	mov rc,a
  45  007F  0700     R  	mov a,_update_adv_2[19]
  45  0080  0080     E  	mov rd,a
  45  0081  340A        	clr c
  45  0082  1B80     E  	rrc rd
  45  0083  1B80     E  	rrc rc
  45  0084  1B80     E  	rrc rb
  45  0085  1B80     E  	rrc ra
  45  0086  0700     E  	mov a,ra
  45  0087  0080     R  	mov _update_adv_2[32],a
  45  0088  0700     E  	mov a,rb
"File: main.c        Assembler  Version HGASM0202      Page 6

  45  0089  0080     R  	mov _update_adv_2[33],a
  45  008A  0700     E  	mov a,rc
  45  008B  0080     R  	mov _update_adv_2[34],a
  45  008C  0700     E  	mov a,rd
  45  008D  0080     R  	mov _update_adv_2[35],a
  45  008E  0700     R  	mov a,_update_adv_2[12]
  45  008F  0080     E  	mov rb,a
  45  0090  0700     R  	mov a,_update_adv_2[13]
  45  0091  0080     E  	mov rc,a
  45  0092  0700     R  	mov a,_update_adv_2[14]
  45  0093  0080     E  	mov rd,a
  45  0094  0700     R  	mov a,_update_adv_2[15]
  45  0095  0080     E  	mov re,a
  45  0096  340A        	clr c
  45  0097  1B80     E  	rrc re
  45  0098  1B80     E  	rrc rd
  45  0099  1B80     E  	rrc rc
  45  009A  1B80     E  	rrc rb
  45  009B  0700     E  	mov a,rb
  45  009C  0080     R  	mov _update_adv_2[36],a
  45  009D  0700     E  	mov a,rc
  45  009E  0080     R  	mov _update_adv_2[37],a
  45  009F  0700     E  	mov a,rd
  45  00A0  0080     R  	mov _update_adv_2[38],a
  45  00A1  0700     E  	mov a,re
  45  00A2  0080     R  	mov _update_adv_2[39],a
  52  00A3              #line 52 "d:\htk\0530\main.c"
  52  00A3  0700     R  	mov a,_update_adv_2[36]
  52  00A4  0300     R  	add a,_update_adv_2[32]
  52  00A5  0080     E  	mov ra,a
  52  00A6  0700     R  	mov a,_update_adv_2[37]
  52  00A7  1300     R  	adc a,_update_adv_2[33]
  52  00A8  0080     E  	mov rb,a
  52  00A9  0700     R  	mov a,_update_adv_2[38]
  52  00AA  1300     R  	adc a,_update_adv_2[34]
  52  00AB  0080     E  	mov rc,a
  52  00AC  0700     R  	mov a,_update_adv_2[39]
  52  00AD  1300     R  	adc a,_update_adv_2[35]
  52  00AE  0080     E  	mov rd,a
  52  00AF  0003        	ret
  52  00B0              _update_adv endp
  52  00B0              #line 52 "d:\htk\0530\main.c"
  52  00B0              #pragma debug scope 1 1
  52  00B0              ___stm0c0 equ [78]
  52  00B0              ___stm0c1 equ [79]
  52  00B0              ___stm0ah equ [83]
  52  00B0              ___stm0al equ [82]
  52  00B0              ___intc1 equ [17]
  52  00B0              ___mfi0 equ [51]
  52  00B0              public _stm0_init
  52  00B0              #pragma debug scope 4 1
  54  00B0              #line 54 "d:\htk\0530\main.c"
  54  0000              _stm0_init .section 'code'
  54  0000              _stm0_init proc
  56  0000              #line 56 "d:\htk\0530\main.c"
  56  0000  1F4E        	clr [78]
  57  0001              #line 57 "d:\htk\0530\main.c"
  57  0001  0FC1        	mov a,193
  57  0002  00CF        	mov [79],a
  58  0003              #line 58 "d:\htk\0530\main.c"
"File: main.c        Assembler  Version HGASM0202      Page 7

  58  0003  0F07        	mov a,7
  58  0004  00D3        	mov [83],a
  59  0005              #line 59 "d:\htk\0530\main.c"
  59  0005  0FD0        	mov a,208
  59  0006  00D2        	mov [82],a
  60  0007              #line 60 "d:\htk\0530\main.c"
  60  0007  3091        	set [17].1
  61  0008              #line 61 "d:\htk\0530\main.c"
  61  0008  31B3        	set [51].3
  62  0009              #line 62 "d:\htk\0530\main.c"
  62  0009  31CE        	set [78].3
  62  000A  0003        	ret
  62  000B              _stm0_init endp
  62  000B              #line 62 "d:\htk\0530\main.c"
  62  000B              #pragma debug scope 1 1
  62  000B              public _update_p
  62  000B              #pragma debug scope 5 1
  65  000B              #line 65 "d:\htk\0530\main.c"
  65  0000              _update_p .section 'code'
  65  0000              _update_p proc
  67  0000              #line 67 "d:\htk\0530\main.c"
  67  0000  1F00     E  	clr _builtin_holtek_mant12p[0]
  67  0001  0700     R  	mov a,_P[2]
  67  0002  0080     E  	mov _builtin_holtek_mant1[2],a
  67  0003  0700     R  	mov a,_P[1]
  67  0004  0080     E  	mov _builtin_holtek_mant1[1],a
  67  0005  0700     R  	mov a,_P[0]
  67  0006  0080     E  	mov _builtin_holtek_mant1[0],a
  67  0007              	fcall _builtin_holtek_ftol
  67  000E  0700     E  	mov a,_builtin_holtek_mant12p[0]
  67  000F  0080     E  	mov rg,a
  67  0010  0700     E  	mov a,_builtin_holtek_mant1[2]
  67  0011  0080     E  	mov rf,a
  67  0012  0700     E  	mov a,_builtin_holtek_mant1[1]
  67  0013  0080     E  	mov re,a
  67  0014  0700     E  	mov a,_builtin_holtek_mant1[0]
  67  0015  0080     E  	mov rd,a
  67  0016  0F04        	mov a,4
  67  0017  0080     E  	mov ra,a
  69  0018              #line 69 "d:\htk\0530\main.c"
  69  0018  0F0D        	mov a,13
  69  0019  0080     E  	mov rh,a
  69  001A              _L11:
  70  001A              #line 70 "d:\htk\0530\main.c"
  70  001A  0700     E  	mov a,rh
  70  001B  0080     E  	mov rb,a
  70  001C  1F00     E  	clr rc
  70  001D  3F85        	sz acc.7
  70  001E  1F80     E  	set rc
  70  001F  1B10        	rrca intc
  70  0020  3410        	clr intc.0
  70  0021  0700     E  	mov a,rd
  70  0022  00D9        	mov mduwr0,a
  70  0023  0700     E  	mov a,re
  70  0024  00DA        	mov mduwr1,a
  70  0025  0F0A        	mov a,10
  70  0026  00DD        	mov mduwr4,a
  70  0027  0F00        	mov a,0
  70  0028  00DE        	mov mduwr5,a
  70  0029  0F06        	mov a,6
"File: main.c        Assembler  Version HGASM0202      Page 8

  70  002A              _LI2:
  70  002A  1785        	sdz acc
  70  002B  2800     R  	jmp _LI2
  70  002C  075D        	mov a,mduwr4
  70  002D  0080     E  	mov rf,a
  70  002E  075E        	mov a,mduwr5
  70  002F  0080     E  	mov rg,a
  70  0030  3C0A        	sz c
  70  0031  3010        	set intc.0
  70  0032  0F30        	mov a,48
  70  0033  0380     E  	addm a,rf
  70  0034  0F00     R  	mov a,low offset _text
  70  0035  0300     E  	add a,rb
  70  0036  0083        	mov mp,a
  70  0037  0F00     R  	mov a,high offset _text
  70  0038  1300     E  	adc a,rc
  70  0039  0084        	mov sbp,a
  70  003A  0700     E  	mov a,rf
  70  003B  0082        	mov ir,a
  71  003C              #line 71 "d:\htk\0530\main.c"
  71  003C  1B10        	rrca intc
  71  003D  3410        	clr intc.0
  71  003E  0700     E  	mov a,rd
  71  003F  00D9        	mov mduwr0,a
  71  0040  0700     E  	mov a,re
  71  0041  00DA        	mov mduwr1,a
  71  0042  0F0A        	mov a,10
  71  0043  00DD        	mov mduwr4,a
  71  0044  0F00        	mov a,0
  71  0045  00DE        	mov mduwr5,a
  71  0046  0F06        	mov a,6
  71  0047              _LI3:
  71  0047  1785        	sdz acc
  71  0048  2800     R  	jmp _LI3
  71  0049  0759        	mov a,mduwr0
  71  004A  0080     E  	mov rd,a
  71  004B  075A        	mov a,mduwr1
  71  004C  0080     E  	mov re,a
  71  004D  3C0A        	sz c
  71  004E  3010        	set intc.0
  69  004F              #line 69 "d:\htk\0530\main.c"
  69  004F  1580     E  	dec rh
  69  0050  1780     E  	sdz ra
  69  0051  2800     R  	jmp _L11
  69  0052  0003        	ret
  69  0053              _update_p endp
  69  0053              #line 69 "d:\htk\0530\main.c"
  69  0053              #pragma debug scope 1 1
  69  0053              public _show_LCD
  69  0053              #pragma debug scope 6 1
  75  0053              #line 75 "d:\htk\0530\main.c"
  75  0000              _show_LCD .section 'code'
  75  0000              _show_LCD proc
  75  0000  0002[           local _show_LCD_2 db 2 dup(?)	; 0,2
            00
            ]
  84  0002              #line 84 "d:\htk\0530\main.c"
  84  0000  0F80        	mov a,128
  84  0001              	fcall _LCD_Cmd
  85  0008              #line 85 "d:\htk\0530\main.c"
"File: main.c        Assembler  Version HGASM0202      Page 9

  85  0008              	fcall _update_p
  87  000F              #line 87 "d:\htk\0530\main.c"
  87  000F  0F01        	mov a,1
  87  0010  0080     E  	mov _delay_ms_2[0],a
  87  0011  1F00     E  	clr _delay_ms_2[1]
  87  0012              	fcall _delay_ms
  87  0019  0F10        	mov a,16
  87  001A  0080     R  	mov _show_LCD_2[0],a
  88  001B              #line 88 "d:\htk\0530\main.c"
  88  001B  1F00     R  	clr _show_LCD_2[1]
  88  001C              _L14:
  89  001C              #line 89 "d:\htk\0530\main.c"
  89  001C  0700     R  	mov a,_show_LCD_2[1]
  89  001D  0080     E  	mov rb,a
  89  001E  1F00     E  	clr rc
  89  001F  3F85        	sz acc.7
  89  0020  1F80     E  	set rc
  89  0021  0F00     R  	mov a,low offset _text
  89  0022  0300     E  	add a,rb
  89  0023  0083        	mov mp,a
  89  0024  0F00     R  	mov a,high offset _text
  89  0025  1300     E  	adc a,rc
  89  0026  0084        	mov sbp,a
  89  0027              	fcall _Crom2Prom
  89  002E              	fcall _LCD_Senddata
  88  0035              #line 88 "d:\htk\0530\main.c"
  88  0035  1480     R  	inc _show_LCD_2[1]
  88  0036  1780     R  	sdz _show_LCD_2[0]
  88  0037  2800     R  	jmp _L14
  91  0038              #line 91 "d:\htk\0530\main.c"
  91  0038  0FC0        	mov a,192
  91  0039              	fcall _LCD_Cmd
  92  0040              #line 92 "d:\htk\0530\main.c"
  92  0040  0F01        	mov a,1
  92  0041  0080     E  	mov _delay_ms_2[0],a
  92  0042  1F00     E  	clr _delay_ms_2[1]
  92  0043              	fcall _delay_ms
  94  004A              #line 94 "d:\htk\0530\main.c"
  94  004A  1E00     R  	snz _d[0]
  94  004B  2800     R  	jmp _L15
  94  004C              #pragma debug scope 7 6
  94  004C              ;begin block, line: 94.-1
  95  004C              #line 95 "d:\htk\0530\main.c"
  95  004C  0FEC        	mov a,236
  95  004D  0300     R  	add a,_s[0]
  95  004E  0080     E  	mov rb,a
  95  004F  0FFF        	mov a,255
  95  0050  1300     R  	adc a,_s[1]
  95  0051  0080     E  	mov rc,a
  95  0052  1B10        	rrca intc
  95  0053  3410        	clr intc.0
  95  0054  0700     E  	mov a,rb
  95  0055  00D9        	mov mduwr0,a
  95  0056  0700     E  	mov a,rc
  95  0057  00DA        	mov mduwr1,a
  95  0058  0F05        	mov a,5
  95  0059  00DD        	mov mduwr4,a
  95  005A  0F00        	mov a,0
  95  005B  00DE        	mov mduwr5,a
  95  005C  0F06        	mov a,6
"File: main.c        Assembler  Version HGASM0202      Page 10

  95  005D              _LI4:
  95  005D  1785        	sdz acc
  95  005E  2800     R  	jmp _LI4
  95  005F  0759        	mov a,mduwr0
  95  0060  0080     E  	mov rb,a
  95  0061  075A        	mov a,mduwr1
  95  0062  0080     E  	mov rc,a
  95  0063  3C0A        	sz c
  95  0064  3010        	set intc.0
  95  0065  0FFF        	mov a,255  
  95  0066  0680     E  	andm a,rb  
  95  0067  0F00        	mov a,0  
  95  0068  0680     E  	andm a,rc
  96  0069              #line 96 "d:\htk\0530\main.c"
  96  0069  340A        	clr c
  96  006A  1A00     E  	rlca rb
  96  006B  0080     E  	mov rd,a
  96  006C  1A00     E  	rlca rc
  96  006D  0080     E  	mov re,a
  96  006E  0700     E  	mov a,rd
  96  006F  0380     E  	addm a,rb
  96  0070  0700     E  	mov a,re
  96  0071  1380     E  	adcm a,rc
  96  0072  0F00     R  	mov a,low offset _P_set
  96  0073  0300     E  	add a,rb
  96  0074  0083        	mov mp,a
  96  0075  0F00     R  	mov a,high offset _P_set
  96  0076  1300     E  	adc a,rc
  96  0077  0084        	mov sbp,a
  96  0078              	fcall _Crom2Prom
  96  007F  0080     R  	mov _text2[7],a
  97  0080              #line 97 "d:\htk\0530\main.c"
  97  0080  0F00     R  	mov a,low (offset _P_set+1)
  97  0081  0300     E  	add a,rb
  97  0082  0083        	mov mp,a
  97  0083  0F00     R  	mov a,high (offset _P_set+1)
  97  0084  1300     E  	adc a,rc
  97  0085  0084        	mov sbp,a
  97  0086              	fcall _Crom2Prom
  97  008D  0080     R  	mov _text2[8],a
  98  008E              #line 98 "d:\htk\0530\main.c"
  98  008E  0F20        	mov a,32
  98  008F  0080     R  	mov _text2[6],a
  98  0090              #pragma debug scope 6 1
  98  0090  2800     R  	jmp _L16
  98  0091              _L15:
 101  0091              #line 101 "d:\htk\0530\main.c"
 101  0091  0700     R  	mov a,_off_text[0]
 101  0092  0080     R  	mov _text2[6],a
 102  0093              #line 102 "d:\htk\0530\main.c"
 102  0093  0700     R  	mov a,_off_text[1]
 102  0094  0080     R  	mov _text2[7],a
 103  0095              #line 103 "d:\htk\0530\main.c"
 103  0095  0700     R  	mov a,_off_text[2]
 103  0096  0080     R  	mov _text2[8],a
 103  0097              _L16:
  88  0097              #line 88 "d:\htk\0530\main.c"
  88  0097  0F10        	mov a,16
  88  0098  0080     R  	mov _show_LCD_2[0],a
  88  0099  1F00     R  	clr _show_LCD_2[1]
"File: main.c        Assembler  Version HGASM0202      Page 11

  88  009A              _L18:
 106  009A              #line 106 "d:\htk\0530\main.c"
 106  009A  0700     R  	mov a,_show_LCD_2[1]
 106  009B  0080     E  	mov rb,a
 106  009C  1F00     E  	clr rc
 106  009D  3F85        	sz acc.7
 106  009E  1F80     E  	set rc
 106  009F  0F00     R  	mov a,low offset _text2
 106  00A0  0300     E  	add a,rb
 106  00A1  0083        	mov mp,a
 106  00A2  0F00     R  	mov a,high offset _text2
 106  00A3  1300     E  	adc a,rc
 106  00A4  0084        	mov sbp,a
 106  00A5              	fcall _Crom2Prom
 106  00AC              	fcall _LCD_Senddata
 105  00B3              #line 105 "d:\htk\0530\main.c"
 105  00B3  1480     R  	inc _show_LCD_2[1]
 105  00B4  1780     R  	sdz _show_LCD_2[0]
 105  00B5  2800     R  	jmp _L18
 105  00B6  0003        	ret
 105  00B7              _show_LCD endp
 105  00B7              #line 105 "d:\htk\0530\main.c"
 105  00B7              #pragma debug scope 1 1
 105  00B7              public _get_p
 105  00B7              #pragma debug scope 8 1
 119  00B7              #line 119 "d:\htk\0530\main.c"
 119  0000              _get_p .section 'code'
 119  0000              _get_p proc
 119  0000              public _get_p_2
 119  0000  0004[           local _get_p_2 db 4 dup(?)	; 4,0
            00
            ]
 119  0004              #pragma debug variable 14 8 _get_p_2+0 "adv_avg"
 120  0004              #line 120 "d:\htk\0530\main.c"
 120  0000  0FF3        	mov a,243
 120  0001  0200     R  	sub a,_get_p_2[0]
 120  0002  0F01        	mov a,1
 120  0003  1200     R  	sbc a,_get_p_2[1]
 120  0004  0F00        	mov a,0
 120  0005  1200     R  	sbc a,_get_p_2[2]
 120  0006  0F00        	mov a,0
 120  0007  1200     R  	sbc a,_get_p_2[3]
 120  0008  3C0A        	sz c
 120  0009  2800     R  	jmp _L21
 122  000A              #line 122 "d:\htk\0530\main.c"
 122  000A  0F94        	mov a,148
 122  000B  0200     R  	sub a,_get_p_2[0]
 122  000C  0F11        	mov a,17
 122  000D  1200     R  	sbc a,_get_p_2[1]
 122  000E  0F00        	mov a,0
 122  000F  1200     R  	sbc a,_get_p_2[2]
 122  0010  0F00        	mov a,0
 122  0011  1200     R  	sbc a,_get_p_2[3]
 122  0012  380A        	snz c
 122  0013  2800     R  	jmp _L22
 125  0014              #line 125 "d:\htk\0530\main.c"
 125  0014  0700     R  	mov a,_get_p_2[3]
 125  0015  0080     E  	mov _builtin_holtek_mant12p[0],a
 125  0016  0700     R  	mov a,_get_p_2[2]
 125  0017  0080     E  	mov _builtin_holtek_mant1[2],a
"File: main.c        Assembler  Version HGASM0202      Page 12

 125  0018  0700     R  	mov a,_get_p_2[1]
 125  0019  0080     E  	mov _builtin_holtek_mant1[1],a
 125  001A  0700     R  	mov a,_get_p_2[0]
 125  001B  0080     E  	mov _builtin_holtek_mant1[0],a
 125  001C              	fcall _builtin_holtek_ltod
 125  0023  0700     E  	mov a,_builtin_holtek_mant12p[0]
 125  0024  0080     E  	mov rg,a
 125  0025  0700     E  	mov a,_builtin_holtek_mant1[2]
 125  0026  0080     E  	mov rf,a
 125  0027  0700     E  	mov a,_builtin_holtek_mant1[1]
 125  0028  0080     E  	mov re,a
 125  0029  0700     E  	mov a,_builtin_holtek_mant1[0]
 125  002A  0080     E  	mov rd,a
 125  002B  0700     E  	mov a,rg
 125  002C  0080     E  	mov _builtin_holtek_mant12p[0],a
 125  002D  0700     E  	mov a,rf
 125  002E  0080     E  	mov _builtin_holtek_mant1[2],a
 125  002F  0700     E  	mov a,re
 125  0030  0080     E  	mov _builtin_holtek_mant1[1],a
 125  0031  0700     E  	mov a,rd
 125  0032  0080     E  	mov _builtin_holtek_mant1[0],a
 125  0033  0F3C        	mov a,60
 125  0034  0080     E  	mov _builtin_holtek_mant12p[1],a
 125  0035  0FCC        	mov a,204
 125  0036  0080     E  	mov _builtin_holtek_mant2[2],a
 125  0037  0FCC        	mov a,204
 125  0038  0080     E  	mov _builtin_holtek_mant2[1],a
 125  0039  0FCD        	mov a,205
 125  003A  0080     E  	mov _builtin_holtek_mant2[0],a
 125  003B              	fcall _builtin_holtek_dtmul
 125  0042  0700     E  	mov a,_builtin_holtek_mant12p[0]
 125  0043  0080     E  	mov rg,a
 125  0044  0700     E  	mov a,_builtin_holtek_mant1[2]
 125  0045  0080     E  	mov rf,a
 125  0046  0700     E  	mov a,_builtin_holtek_mant1[1]
 125  0047  0080     E  	mov re,a
 125  0048  0700     E  	mov a,_builtin_holtek_mant1[0]
 125  0049  0080     E  	mov rd,a
 125  004A  0700     E  	mov a,rg
 125  004B  0080     E  	mov _builtin_holtek_mant12p[0],a
 125  004C  0700     E  	mov a,rf
 125  004D  0080     E  	mov _builtin_holtek_mant1[2],a
 125  004E  0700     E  	mov a,re
 125  004F  0080     E  	mov _builtin_holtek_mant1[1],a
 125  0050  0700     E  	mov a,rd
 125  0051  0080     E  	mov _builtin_holtek_mant1[0],a
 125  0052  0F41        	mov a,65
 125  0053  0080     E  	mov _builtin_holtek_mant12p[1],a
 125  0054  0F48        	mov a,72
 125  0055  0080     E  	mov _builtin_holtek_mant2[2],a
 125  0056  0F00        	mov a,0
 125  0057  0080     E  	mov _builtin_holtek_mant2[1],a
 125  0058  0F00        	mov a,0
 125  0059  0080     E  	mov _builtin_holtek_mant2[0],a
 125  005A              	fcall _builtin_holtek_dtsub
 125  0061  0700     E  	mov a,_builtin_holtek_mant12p[0]
 125  0062  0080     E  	mov rg,a
 125  0063  0700     E  	mov a,_builtin_holtek_mant1[2]
 125  0064  0080     E  	mov rf,a
 125  0065  0700     E  	mov a,_builtin_holtek_mant1[1]
"File: main.c        Assembler  Version HGASM0202      Page 13

 125  0066  0080     E  	mov re,a
 125  0067  0700     E  	mov a,_builtin_holtek_mant1[0]
 125  0068  0080     E  	mov rd,a
 125  0069  0700     E  	mov a,rg
 125  006A  0080     E  	mov rc,a
 125  006B  0700     E  	mov a,rf
 125  006C  0080     E  	mov rb,a
 125  006D  0700     E  	mov a,re
 125  006E  0080     E  	mov ra,a
 125  006F  2800     R  	jmp _L20
 125  0070              _L21:
 121  0070              #line 121 "d:\htk\0530\main.c"
 121  0070  1F00     E  	clr ra
 121  0071  1F00     E  	clr rb
 121  0072  1F00     E  	clr rc
 121  0073  2800     R  	jmp _L20
 121  0074              _L22:
 123  0074              #line 123 "d:\htk\0530\main.c"
 123  0074  1F00     E  	clr ra
 123  0075  0FC8        	mov a,-56
 123  0076  0080     E  	mov rb,a
 123  0077  0F42        	mov a,66
 123  0078  0080     E  	mov rc,a
 123  0079              _L20:
 123  0079  0003        	ret
 123  007A              _get_p endp
 123  007A              #line 123 "d:\htk\0530\main.c"
 123  007A              #pragma debug scope 1 1
 123  007A              ___wdtc equ [62]
 123  007A              ___pfc equ [37]
 123  007A              ___pdc equ [31]
 123  007A              ___pac equ [21]
 123  007A              ___sadc1 equ [106]
 123  007A              ___sadc2 equ [107]
 123  007A              ___pds0 equ [339]
 123  007A              ___pcs1 equ [338]
 123  007A              ___pcc equ [28]
 123  007A              ___ptm1c0 equ [282]
 123  007A              ___ptm1c1 equ [283]
 123  007A              ___ptm1rpl equ [288]
 123  007A              ___ptm1rph equ [289]
 123  007A              ___ptm1al equ [286]
 123  007A              ___ptm1ah equ [287]
 123  007A              ___pec equ [34]
 123  007A              ___pbc equ [25]
 123  007A              ___intc0 equ [16]
 123  007A              ___pa equ [20]
 123  007A              ___pe equ [33]
 123  007A              ___pb equ [24]
 123  007A              public _main
 123  007A              #pragma debug scope 9 1
 130  007A              #line 130 "d:\htk\0530\main.c"
 130  007A              IFDEF WITH_DEFAULT_STARTUP
 130  007A              extern _main_initial0:near
 130  007A              extern _main_startup:near
 130  007A              ENDIF
 130  007A              
 130  007A              ROMBANK 0 @start
 130  0000              @start .section com_l 'code'
 130  0000              _main_startup1:
"File: main.c        Assembler  Version HGASM0202      Page 14

 130  0000              @start .section com_e 'code'
 130  0000  0F00     R  	mov a,bank _main
 130  0001  008B        	mov bp,a
 130  0002  2800     R  	jmp _main
 130  0003              
 130  0000              _main .section 'code'
 130  0000              _main proc
 130  0000  0004[           local _main_2 db 4 dup(?)
            00
            ]
 131  0004              #line 131 "d:\htk\0530\main.c"
 131  0000  0FAF        	mov a,175
 131  0001  00BE        	mov [62],a
 134  0002              #line 134 "d:\htk\0530\main.c"
 134  0002  1F4E        	clr [78]
 135  0003              #line 135 "d:\htk\0530\main.c"
 135  0003  0FC1        	mov a,193
 135  0004  00CF        	mov [79],a
 136  0005              #line 136 "d:\htk\0530\main.c"
 136  0005  0F07        	mov a,7
 136  0006  00D3        	mov [83],a
 137  0007              #line 137 "d:\htk\0530\main.c"
 137  0007  0FD0        	mov a,208
 137  0008  00D2        	mov [82],a
 138  0009              #line 138 "d:\htk\0530\main.c"
 138  0009  3091        	set [17].1
 139  000A              #line 139 "d:\htk\0530\main.c"
 139  000A  31B3        	set [51].3
 140  000B              #line 140 "d:\htk\0530\main.c"
 140  000B  31CE        	set [78].3
 143  000C              #line 143 "d:\htk\0530\main.c"
 143  000C  1F25        	clr [37]
 144  000D              #line 144 "d:\htk\0530\main.c"
 144  000D  361F        	clr [31].4
 145  000E              #line 145 "d:\htk\0530\main.c"
 145  000E  369F        	clr [31].5
 146  000F              #line 146 "d:\htk\0530\main.c"
 146  000F  371F        	clr [31].6
 147  0010              #line 147 "d:\htk\0530\main.c"
 147  0010  3495        	clr [21].1
 149  0011              #line 149 "d:\htk\0530\main.c"
 149  0011  0F38        	mov a,56
 149  0012  00E9        	mov [105],a
 150  0013              #line 150 "d:\htk\0530\main.c"
 150  0013  0F07        	mov a,7
 150  0014  00EA        	mov [106],a
 151  0015              #line 151 "d:\htk\0530\main.c"
 151  0015  1F6B        	clr [107]
 152  0016              #line 152 "d:\htk\0530\main.c"
 152  0016  0F0F        	mov a,15
 152  0017  80D3 0001   	lmov [339],a
 153  0019              #line 153 "d:\htk\0530\main.c"
 153  0019  3191        	set [17].3
 156  001A              #line 156 "d:\htk\0530\main.c"
 156  001A  0F02        	mov a,2
 156  001B  80D2 0001   	lmov [338],a
 158  001D              #line 158 "d:\htk\0530\main.c"
 158  001D  361C        	clr [28].4
 160  001E              #line 160 "d:\htk\0530\main.c"
 160  001E  0F08        	mov a,8
"File: main.c        Assembler  Version HGASM0202      Page 15

 160  001F  809A 0001   	lmov [282],a
 161  0021              #line 161 "d:\htk\0530\main.c"
 161  0021  0FA8        	mov a,168
 161  0022  809B 0001   	lmov [283],a
 162  0024              #line 162 "d:\htk\0530\main.c"
 162  0024  0F40        	mov a,64
 162  0025  80A0 0001   	lmov [288],a
 163  0027              #line 163 "d:\htk\0530\main.c"
 163  0027  0F06        	mov a,6
 163  0028  80A1 0001   	lmov [289],a
 164  002A              #line 164 "d:\htk\0530\main.c"
 164  002A  0F20        	mov a,32
 164  002B  809E 0001   	lmov [286],a
 165  002D              #line 165 "d:\htk\0530\main.c"
 165  002D  0F03        	mov a,3
 165  002E  809F 0001   	lmov [287],a
 168  0030              #line 168 "d:\htk\0530\main.c"
 168  0030  0F0F        	mov a,15
 168  0031  00A2        	mov [34],a
 169  0032              #line 169 "d:\htk\0530\main.c"
 169  0032  3499        	clr [25].1
 170  0033              #line 170 "d:\htk\0530\main.c"
 170  0033  3419        	clr [25].0
 171  0034              #line 171 "d:\htk\0530\main.c"
 171  0034  3010        	set [16].0
 172  0035              #line 172 "d:\htk\0530\main.c"
 172  0035              	fcall _LCD_Reset
 173  003C              #line 173 "d:\htk\0530\main.c"
 173  003C  33E9        	set [105].7
 174  003D              #line 174 "d:\htk\0530\main.c"
 174  003D  37E9        	clr [105].7
 175  003E              #line 175 "d:\htk\0530\main.c"
 175  003E  0F01        	mov a,1
 175  003F  0080     E  	mov _delay_ms_2[0],a
 175  0040  1F00     E  	clr _delay_ms_2[1]
 175  0041              	fcall _delay_ms
 178  0048              #line 178 "d:\htk\0530\main.c"
 178  0048  3094        	set [20].1
 179  0049              #line 179 "d:\htk\0530\main.c"
 179  0049              	fcall _show_LCD
 179  0050              _L44:
 181  0050              #line 181 "d:\htk\0530\main.c"
 181  0050  1E00     R  	snz _t_flag[0]
 181  0051  2800     R  	jmp _L24
 181  0052              #pragma debug scope 10 9
 181  0052              ;begin block, line: 181.-1
 181  0052              #pragma debug variable 14 10 _main_2+0 "adv_avg"
 182  0052              #line 182 "d:\htk\0530\main.c"
 182  0052  33E9        	set [105].7
 183  0053              #line 183 "d:\htk\0530\main.c"
 183  0053  37E9        	clr [105].7
 184  0054              #line 184 "d:\htk\0530\main.c"
 184  0054  0721        	mov a,[33]
 184  0055  0E0F        	and a,15
 184  0056  0080     E  	mov ra,a
 185  0057              #line 185 "d:\htk\0530\main.c"
 185  0057  0700     R  	mov a,_key_hold[0]
 185  0058  0080     E  	mov rb,a
 185  0059  0700     E  	mov a,rb
 185  005A  0A0F        	sub a,15
"File: main.c        Assembler  Version HGASM0202      Page 16

 185  005B  390A        	snz z
 185  005C  2800     R  	jmp _L25
 186  005D              #line 186 "d:\htk\0530\main.c"
 186  005D  0F0F        	mov a,15
 186  005E  0080     R  	mov _key[0],a
 187  005F              #line 187 "d:\htk\0530\main.c"
 187  005F  1F00     R  	clr _hold[0]
 187  0060  2800     R  	jmp _L27
 187  0061              _L25:
 190  0061              #line 190 "d:\htk\0530\main.c"
 190  0061  0700     E  	mov a,ra
 190  0062  0200     E  	sub a,rb
 190  0063  390A        	snz z
 190  0064  2800     R  	jmp _L27
 191  0065              #line 191 "d:\htk\0530\main.c"
 191  0065  1080     R  	sz _hold[0]
 191  0066  2800     R  	jmp _L28
 192  0067              #line 192 "d:\htk\0530\main.c"
 192  0067  0F01        	mov a,1
 192  0068  0080     R  	mov _hold[0],a
 193  0069              #line 193 "d:\htk\0530\main.c"
 193  0069  0700     E  	mov a,ra
 193  006A  0080     R  	mov _key[0],a
 193  006B  2800     R  	jmp _L26
 193  006C              _L28:
 196  006C              #line 196 "d:\htk\0530\main.c"
 196  006C  0F0F        	mov a,15
 196  006D  0080     R  	mov _key[0],a
 196  006E  2800     R  	jmp _L26
 196  006F              _L27:
 201  006F              #line 201 "d:\htk\0530\main.c"
 201  006F  0700     E  	mov a,ra
 201  0070  0080     R  	mov _key_hold[0],a
 201  0071              _L26:
 204  0071              #line 204 "d:\htk\0530\main.c"
 204  0071  0700     R  	mov a,_key[0]
 204  0072  0080     R  	mov _main_2[0],a
 204  0073  0700     R  	mov a,_main_2[0]
 204  0074  0A0E        	sub a,14
 204  0075  390A        	snz z
 204  0076  2800     R  	jmp _L29
 205  0077              #line 205 "d:\htk\0530\main.c"
 205  0077  0700     R  	mov a,_s[0]
 205  0078  0C23        	xor a,35
 205  0079  0500     R  	or a,_s[1]
 205  007A  3D0A        	sz z
 205  007B  2800     R  	jmp _L45
 205  007C  0F05        	mov a,5
 205  007D  0300     R  	add a,_s[0]
 205  007E  0080     E  	mov rb,a
 205  007F  0F00        	mov a,0
 205  0080  1300     R  	adc a,_s[1]
 205  0081  0080     E  	mov rc,a
 205  0082  2800     R  	jmp _L33
 205  0083              _L45:
 205  0083  0F23        	mov a,35
 205  0084  0080     E  	mov rb,a
 205  0085  1F00     E  	clr rc
 205  0086  2800     R  	jmp _L33
 205  0087              _L29:
"File: main.c        Assembler  Version HGASM0202      Page 17

 206  0087              #line 206 "d:\htk\0530\main.c"
 206  0087  0700     R  	mov a,_main_2[0]
 206  0088  0A0D        	sub a,13
 206  0089  390A        	snz z
 206  008A  2800     R  	jmp _L32
 207  008B              #line 207 "d:\htk\0530\main.c"
 207  008B  0700     R  	mov a,_s[0]
 207  008C  0C14        	xor a,20
 207  008D  0500     R  	or a,_s[1]
 207  008E  3D0A        	sz z
 207  008F  2800     R  	jmp _L46
 207  0090  0FFB        	mov a,251
 207  0091  0300     R  	add a,_s[0]
 207  0092  0080     E  	mov rb,a
 207  0093  0FFF        	mov a,255
 207  0094  1300     R  	adc a,_s[1]
 207  0095  0080     E  	mov rc,a
 207  0096  2800     R  	jmp _L33
 207  0097              _L46:
 207  0097  0F14        	mov a,20
 207  0098  0080     E  	mov rb,a
 207  0099  1F00     E  	clr rc
 207  009A              _L33:
 207  009A  0700     E  	mov a,rb
 207  009B  0080     R  	mov _s[0],a
 207  009C  0700     E  	mov a,rc
 207  009D  0080     R  	mov _s[1],a
 207  009E  2800     R  	jmp _L31
 207  009F              _L32:
 208  009F              #line 208 "d:\htk\0530\main.c"
 208  009F  0700     R  	mov a,_main_2[0]
 208  00A0  0A0B        	sub a,11
 208  00A1  390A        	snz z
 208  00A2  2800     R  	jmp _L31
 209  00A3              #line 209 "d:\htk\0530\main.c"
 209  00A3  0F01        	mov a,1
 209  00A4  0080     E  	mov ra,a
 209  00A5  1E00     R  	snz _d[0]
 209  00A6  2800     R  	jmp _L34
 209  00A7  1F00     E  	clr ra
 209  00A8              _L34:
 209  00A8  0700     E  	mov a,ra
 209  00A9  0080     R  	mov _d[0],a
 209  00AA              _L31:
 210  00AA              #line 210 "d:\htk\0530\main.c"
 210  00AA              	fcall _update_adv
 210  00B1  0700     E  	mov a,ra
 210  00B2  0080     R  	mov _main_2[0],a
 210  00B3  0700     E  	mov a,rb
 210  00B4  0080     R  	mov _main_2[1],a
 210  00B5  0700     E  	mov a,rc
 210  00B6  0080     R  	mov _main_2[2],a
 210  00B7  0700     E  	mov a,rd
 210  00B8  0080     R  	mov _main_2[3],a
 211  00B9              #line 211 "d:\htk\0530\main.c"
 211  00B9  0700     E  	mov a,ra
 211  00BA  0080     R  	mov _test[0],a
 211  00BB  0700     E  	mov a,rb
 211  00BC  0080     R  	mov _test[1],a
 211  00BD  0700     E  	mov a,rc
"File: main.c        Assembler  Version HGASM0202      Page 18

 211  00BE  0080     R  	mov _test[2],a
 211  00BF  0700     E  	mov a,rd
 211  00C0  0080     R  	mov _test[3],a
 211  00C1              #pragma debug scope 11 10
 211  00C1              ;begin block, line: 211.-1
 211  00C1              #pragma debug scope 12 11
 211  00C1              ;begin block, line: 211.-1
 120  00C1              #line 120 "d:\htk\0530\main.c"
 120  00C1  0FF3        	mov a,243
 120  00C2  0200     E  	sub a,ra
 120  00C3  0F01        	mov a,1
 120  00C4  1200     E  	sbc a,rb
 120  00C5  0F00        	mov a,0
 120  00C6  1200     E  	sbc a,rc
 120  00C7  0F00        	mov a,0
 120  00C8  1200     E  	sbc a,rd
 120  00C9  3C0A        	sz c
 120  00CA  2800     R  	jmp _L47
 122  00CB              #line 122 "d:\htk\0530\main.c"
 122  00CB  0F94        	mov a,148
 122  00CC  0200     E  	sub a,ra
 122  00CD  0F11        	mov a,17
 122  00CE  1200     E  	sbc a,rb
 122  00CF  0F00        	mov a,0
 122  00D0  1200     E  	sbc a,rc
 122  00D1  0F00        	mov a,0
 122  00D2  1200     E  	sbc a,rd
 122  00D3  380A        	snz c
 122  00D4  2800     R  	jmp _L48
 125  00D5              #line 125 "d:\htk\0530\main.c"
 125  00D5  0700     E  	mov a,rd
 125  00D6  0080     E  	mov _builtin_holtek_mant12p[0],a
 125  00D7  0700     E  	mov a,rc
 125  00D8  0080     E  	mov _builtin_holtek_mant1[2],a
 125  00D9  0700     E  	mov a,rb
 125  00DA  0080     E  	mov _builtin_holtek_mant1[1],a
 125  00DB  0700     E  	mov a,ra
 125  00DC  0080     E  	mov _builtin_holtek_mant1[0],a
 125  00DD              	fcall _builtin_holtek_ltod
 125  00E4  0700     E  	mov a,_builtin_holtek_mant12p[0]
 125  00E5  0080     E  	mov rg,a
 125  00E6  0700     E  	mov a,_builtin_holtek_mant1[2]
 125  00E7  0080     E  	mov rf,a
 125  00E8  0700     E  	mov a,_builtin_holtek_mant1[1]
 125  00E9  0080     E  	mov re,a
 125  00EA  0700     E  	mov a,_builtin_holtek_mant1[0]
 125  00EB  0080     E  	mov rd,a
 125  00EC  0700     E  	mov a,rg
 125  00ED  0080     E  	mov _builtin_holtek_mant12p[0],a
 125  00EE  0700     E  	mov a,rf
 125  00EF  0080     E  	mov _builtin_holtek_mant1[2],a
 125  00F0  0700     E  	mov a,re
 125  00F1  0080     E  	mov _builtin_holtek_mant1[1],a
 125  00F2  0700     E  	mov a,rd
 125  00F3  0080     E  	mov _builtin_holtek_mant1[0],a
 125  00F4  0F3C        	mov a,60
 125  00F5  0080     E  	mov _builtin_holtek_mant12p[1],a
 125  00F6  0FCC        	mov a,204
 125  00F7  0080     E  	mov _builtin_holtek_mant2[2],a
 125  00F8  0FCC        	mov a,204
"File: main.c        Assembler  Version HGASM0202      Page 19

 125  00F9  0080     E  	mov _builtin_holtek_mant2[1],a
 125  00FA  0FCD        	mov a,205
 125  00FB  0080     E  	mov _builtin_holtek_mant2[0],a
 125  00FC              	fcall _builtin_holtek_dtmul
 125  0103  0700     E  	mov a,_builtin_holtek_mant12p[0]
 125  0104  0080     E  	mov rg,a
 125  0105  0700     E  	mov a,_builtin_holtek_mant1[2]
 125  0106  0080     E  	mov rf,a
 125  0107  0700     E  	mov a,_builtin_holtek_mant1[1]
 125  0108  0080     E  	mov re,a
 125  0109  0700     E  	mov a,_builtin_holtek_mant1[0]
 125  010A  0080     E  	mov rd,a
 125  010B  0700     E  	mov a,rg
 125  010C  0080     E  	mov _builtin_holtek_mant12p[0],a
 125  010D  0700     E  	mov a,rf
 125  010E  0080     E  	mov _builtin_holtek_mant1[2],a
 125  010F  0700     E  	mov a,re
 125  0110  0080     E  	mov _builtin_holtek_mant1[1],a
 125  0111  0700     E  	mov a,rd
 125  0112  0080     E  	mov _builtin_holtek_mant1[0],a
 125  0113  0F41        	mov a,65
 125  0114  0080     E  	mov _builtin_holtek_mant12p[1],a
 125  0115  0F48        	mov a,72
 125  0116  0080     E  	mov _builtin_holtek_mant2[2],a
 125  0117  0F00        	mov a,0
 125  0118  0080     E  	mov _builtin_holtek_mant2[1],a
 125  0119  0F00        	mov a,0
 125  011A  0080     E  	mov _builtin_holtek_mant2[0],a
 125  011B              	fcall _builtin_holtek_dtsub
 125  0122  0700     E  	mov a,_builtin_holtek_mant12p[0]
 125  0123  0080     E  	mov rg,a
 125  0124  0700     E  	mov a,_builtin_holtek_mant1[2]
 125  0125  0080     E  	mov rf,a
 125  0126  0700     E  	mov a,_builtin_holtek_mant1[1]
 125  0127  0080     E  	mov re,a
 125  0128  0700     E  	mov a,_builtin_holtek_mant1[0]
 125  0129  0080     E  	mov rd,a
 125  012A  0700     E  	mov a,re
 125  012B  0080     E  	mov rc,a
 125  012C  0700     E  	mov a,rf
 125  012D  0080     E  	mov rd,a
 125  012E  0700     E  	mov a,rg
 125  012F  0080     E  	mov re,a
 125  0130  2800     R  	jmp _L35
 125  0131              _L47:
 121  0131              #line 121 "d:\htk\0530\main.c"
 121  0131  1F00     E  	clr rc
 121  0132  1F00     E  	clr rd
 121  0133  1F00     E  	clr re
 121  0134  2800     R  	jmp _L35
 121  0135              _L48:
 123  0135              #line 123 "d:\htk\0530\main.c"
 123  0135  1F00     E  	clr rc
 123  0136  0FC8        	mov a,-56
 123  0137  0080     E  	mov rd,a
 123  0138  0F42        	mov a,66
 123  0139  0080     E  	mov re,a
 123  013A              _L35:
 123  013A              #pragma debug scope 11 10
 123  013A              #pragma debug scope 10 9
"File: main.c        Assembler  Version HGASM0202      Page 20

 212  013A              #line 212 "d:\htk\0530\main.c"
 212  013A  0700     E  	mov a,rc
 212  013B  0080     R  	mov _P[0],a
 212  013C  0700     E  	mov a,rd
 212  013D  0080     R  	mov _P[1],a
 212  013E  0700     E  	mov a,re
 212  013F  0080     R  	mov _P[2],a
 213  0140              #line 213 "d:\htk\0530\main.c"
 213  0140              	fcall _update_p
 214  0147              #line 214 "d:\htk\0530\main.c"
 214  0147  0700     R  	mov a,_main_2[0]
 214  0148  0080     E  	mov rd,a
 214  0149  0700     R  	mov a,_main_2[1]
 214  014A  0080     E  	mov re,a
 214  014B  0700     R  	mov a,_main_2[2]
 214  014C  0080     E  	mov rf,a
 214  014D  0700     R  	mov a,_main_2[3]
 214  014E  0080     E  	mov rg,a
 214  014F  0F03        	mov a,3
 214  0150              _LI5:
 214  0150  340A        	clr c
 214  0151  1A80     E  	rlc rd
 214  0152  1A80     E  	rlc re
 214  0153  1A80     E  	rlc rf
 214  0154  1A80     E  	rlc rg
 214  0155  1785        	sdz acc
 214  0156  2800     R  	jmp _LI5
 214  0157  1B10        	rrca intc
 214  0158  3410        	clr intc.0
 214  0159  0700     E  	mov a,rd
 214  015A  00D9        	mov mduwr0,a
 214  015B  0700     E  	mov a,re
 214  015C  00DA        	mov mduwr1,a
 214  015D  0700     E  	mov a,rf
 214  015E  00DB        	mov mduwr2,a
 214  015F  0700     E  	mov a,rg
 214  0160  00DC        	mov mduwr3,a
 214  0161  0F24        	mov a,36
 214  0162  00DD        	mov mduwr4,a
 214  0163  0F13        	mov a,19
 214  0164  00DE        	mov mduwr5,a
 214  0165  0F06        	mov a,6
 214  0166              _LI6:
 214  0166  1785        	sdz acc
 214  0167  2800     R  	jmp _LI6
 214  0168  0759        	mov a,mduwr0
 214  0169  0080     E  	mov rd,a
 214  016A  075A        	mov a,mduwr1
 214  016B  0080     E  	mov re,a
 214  016C  075B        	mov a,mduwr2
 214  016D  0080     E  	mov rf,a
 214  016E  075C        	mov a,mduwr3
 214  016F  0080     E  	mov rg,a
 214  0170  3C0A        	sz c
 214  0171  3010        	set intc.0
 214  0172  0700     E  	mov a,rd
 214  0173  0080     R  	mov _n1[0],a
 214  0174  0700     E  	mov a,re
 214  0175  0080     R  	mov _n1[1],a
 220  0176              #line 220 "d:\htk\0530\main.c"
"File: main.c        Assembler  Version HGASM0202      Page 21

 220  0176  0700     R  	mov a,_P[0]
 220  0177  0080     E  	mov rc,a
 220  0178  0700     R  	mov a,_P[1]
 220  0179  0080     E  	mov rd,a
 220  017A  0700     R  	mov a,_P[2]
 220  017B  0080     E  	mov re,a
 220  017C  0700     R  	mov a,_s[1]
 220  017D  0080     E  	mov _builtin_holtek_mant1[1],a
 220  017E  0700     R  	mov a,_s[0]
 220  017F  0080     E  	mov _builtin_holtek_mant1[0],a
 220  0180  3400     E  	clr _builtin_holtek_signs.0
 220  0181              	fcall _builtin_holtek_uitof
 220  0188  0700     E  	mov a,_builtin_holtek_mant1[2]
 220  0189  0080     E  	mov rh,a
 220  018A  0700     E  	mov a,_builtin_holtek_mant1[1]
 220  018B  0080     E  	mov rg,a
 220  018C  0700     E  	mov a,_builtin_holtek_mant1[0]
 220  018D  0080     E  	mov rf,a
 220  018E  0700     E  	mov a,rh
 220  018F  0080     E  	mov _builtin_holtek_mant1[2],a
 220  0190  0700     E  	mov a,rg
 220  0191  0080     E  	mov _builtin_holtek_mant1[1],a
 220  0192  0700     E  	mov a,rf
 220  0193  0080     E  	mov _builtin_holtek_mant1[0],a
 220  0194  0700     E  	mov a,re
 220  0195  0080     E  	mov _builtin_holtek_mant2[2],a
 220  0196  0700     E  	mov a,rd
 220  0197  0080     E  	mov _builtin_holtek_mant2[1],a
 220  0198  0700     E  	mov a,rc
 220  0199  0080     E  	mov _builtin_holtek_mant2[0],a
 220  019A              	fcall _builtin_holtek_ftsub
 220  01A1  0700     E  	mov a,_builtin_holtek_mant1[2]
 220  01A2  0080     E  	mov rh,a
 220  01A3  0700     E  	mov a,_builtin_holtek_mant1[1]
 220  01A4  0080     E  	mov rg,a
 220  01A5  0700     E  	mov a,_builtin_holtek_mant1[0]
 220  01A6  0080     E  	mov rf,a
 220  01A7  0700     E  	mov a,rh
 220  01A8  0080     E  	mov _builtin_holtek_mant1[2],a
 220  01A9  0700     E  	mov a,rg
 220  01AA  0080     E  	mov _builtin_holtek_mant1[1],a
 220  01AB  0700     E  	mov a,rf
 220  01AC  0080     E  	mov _builtin_holtek_mant1[0],a
 220  01AD  0700     E  	mov a,re
 220  01AE  0080     E  	mov _builtin_holtek_mant2[2],a
 220  01AF  0700     E  	mov a,rd
 220  01B0  0080     E  	mov _builtin_holtek_mant2[1],a
 220  01B1  0700     E  	mov a,rc
 220  01B2  0080     E  	mov _builtin_holtek_mant2[0],a
 220  01B3              	fcall _builtin_holtek_ftmul
 220  01BA  0700     E  	mov a,_builtin_holtek_mant1[2]
 220  01BB  0080     E  	mov rh,a
 220  01BC  0700     E  	mov a,_builtin_holtek_mant1[1]
 220  01BD  0080     E  	mov rg,a
 220  01BE  0700     E  	mov a,_builtin_holtek_mant1[0]
 220  01BF  0080     E  	mov rf,a
 220  01C0  0700     E  	mov a,rh
 220  01C1  0080     E  	mov _builtin_holtek_mant1[2],a
 220  01C2  0700     E  	mov a,rg
 220  01C3  0080     E  	mov _builtin_holtek_mant1[1],a
"File: main.c        Assembler  Version HGASM0202      Page 22

 220  01C4  0700     E  	mov a,rf
 220  01C5  0080     E  	mov _builtin_holtek_mant1[0],a
 220  01C6  0F3D        	mov a,61
 220  01C7  0080     E  	mov _builtin_holtek_mant2[2],a
 220  01C8  0F00        	mov a,0
 220  01C9  0080     E  	mov _builtin_holtek_mant2[1],a
 220  01CA  0F00        	mov a,0
 220  01CB  0080     E  	mov _builtin_holtek_mant2[0],a
 220  01CC              	fcall _builtin_holtek_ftmul
 220  01D3  0700     E  	mov a,_builtin_holtek_mant1[2]
 220  01D4  0080     E  	mov rh,a
 220  01D5  0700     E  	mov a,_builtin_holtek_mant1[1]
 220  01D6  0080     E  	mov rg,a
 220  01D7  0700     E  	mov a,_builtin_holtek_mant1[0]
 220  01D8  0080     E  	mov rf,a
 220  01D9  0700     E  	mov a,rh
 220  01DA  0080     E  	mov _builtin_holtek_mant1[2],a
 220  01DB  0700     E  	mov a,rg
 220  01DC  0080     E  	mov _builtin_holtek_mant1[1],a
 220  01DD  0700     E  	mov a,rf
 220  01DE  0080     E  	mov _builtin_holtek_mant1[0],a
 220  01DF  0700     R  	mov a,_n2[2]
 220  01E0  0080     E  	mov _builtin_holtek_mant2[2],a
 220  01E1  0700     R  	mov a,_n2[1]
 220  01E2  0080     E  	mov _builtin_holtek_mant2[1],a
 220  01E3  0700     R  	mov a,_n2[0]
 220  01E4  0080     E  	mov _builtin_holtek_mant2[0],a
 220  01E5              	fcall _builtin_holtek_ftadd
 220  01EC  0700     E  	mov a,_builtin_holtek_mant1[2]
 220  01ED  0080     E  	mov rh,a
 220  01EE  0700     E  	mov a,_builtin_holtek_mant1[1]
 220  01EF  0080     E  	mov rg,a
 220  01F0  0700     E  	mov a,_builtin_holtek_mant1[0]
 220  01F1  0080     E  	mov rf,a
 221  01F2              #line 221 "d:\htk\0530\main.c"
 221  01F2  0700     E  	mov a,rh
 221  01F3  0080     E  	mov _builtin_holtek_mant1[2],a
 221  01F4  0700     E  	mov a,rg
 221  01F5  0080     E  	mov _builtin_holtek_mant1[1],a
 221  01F6  0700     E  	mov a,rf
 221  01F7  0080     E  	mov _builtin_holtek_mant1[0],a
 221  01F8  0F44        	mov a,68
 221  01F9  0080     E  	mov _builtin_holtek_mant2[2],a
 221  01FA  0FC8        	mov a,200
 221  01FB  0080     E  	mov _builtin_holtek_mant2[1],a
 221  01FC  0F00        	mov a,0
 221  01FD  0080     E  	mov _builtin_holtek_mant2[0],a
 221  01FE              	fcall _builtin_holtek_ftsub
 221  0205  3C00     E  	sz _builtin_holtek_mant1[2].7
 221  0206  2800     R  	jmp _LI7
 221  0207  0700     E  	mov a,_builtin_holtek_mant1[2]
 221  0208  0500     E  	or a,_builtin_holtek_mant1[1]
 221  0209  0500     E  	or a,_builtin_holtek_mant1[0]
 221  020A  390A        	snz z
 221  020B  2800     R  	jmp _L49
 221  020C              _LI7:
 221  020C  2800     R  	jmp _L61
 221  020D              _L49:
 222  020D              #line 222 "d:\htk\0530\main.c"
 222  020D  1F00     R  	clr _n2[0]
"File: main.c        Assembler  Version HGASM0202      Page 23

 222  020E  0FC8        	mov a,-56
 222  020F  0080     R  	mov _n2[1],a
 222  0210  0F44        	mov a,68
 222  0211  0080     R  	mov _n2[2],a
 222  0212  2800     R  	jmp _L38
 222  0213              _L61:
 223  0213              #line 223 "d:\htk\0530\main.c"
 223  0213  0700     E  	mov a,re
 223  0214  0080     E  	mov _builtin_holtek_mant1[2],a
 223  0215  0700     E  	mov a,rd
 223  0216  0080     E  	mov _builtin_holtek_mant1[1],a
 223  0217  0700     E  	mov a,rc
 223  0218  0080     E  	mov _builtin_holtek_mant1[0],a
 223  0219  0F42        	mov a,66
 223  021A  0080     E  	mov _builtin_holtek_mant2[2],a
 223  021B  0F5C        	mov a,92
 223  021C  0080     E  	mov _builtin_holtek_mant2[1],a
 223  021D  0F00        	mov a,0
 223  021E  0080     E  	mov _builtin_holtek_mant2[0],a
 223  021F              	fcall _builtin_holtek_ftsub
 223  0226  3C00     E  	sz _builtin_holtek_mant1[2].7
 223  0227  2800     R  	jmp _LI8
 223  0228  0700     E  	mov a,_builtin_holtek_mant1[2]
 223  0229  0500     E  	or a,_builtin_holtek_mant1[1]
 223  022A  0500     E  	or a,_builtin_holtek_mant1[0]
 223  022B  390A        	snz z
 223  022C  2800     R  	jmp _L39
 223  022D              _LI8:
 223  022D  0700     E  	mov a,rh
 223  022E  0080     E  	mov _builtin_holtek_mant1[2],a
 223  022F  0700     E  	mov a,rg
 223  0230  0080     E  	mov _builtin_holtek_mant1[1],a
 223  0231  0700     E  	mov a,rf
 223  0232  0080     E  	mov _builtin_holtek_mant1[0],a
 223  0233  0F00        	mov a,0
 223  0234  0080     E  	mov _builtin_holtek_mant2[2],a
 223  0235  0F00        	mov a,0
 223  0236  0080     E  	mov _builtin_holtek_mant2[1],a
 223  0237  0F00        	mov a,0
 223  0238  0080     E  	mov _builtin_holtek_mant2[0],a
 223  0239              	fcall _builtin_holtek_ftsub
 223  0240  3C00     E  	sz _builtin_holtek_mant1[2].7
 223  0241  2800     R  	jmp _L39
 223  0242  2800     R  	jmp _L62
 223  0243              _L39:
 224  0243              #line 224 "d:\htk\0530\main.c"
 224  0243  1F00     R  	clr _n2[0]
 224  0244  1F00     R  	clr _n2[1]
 224  0245  1F00     R  	clr _n2[2]
 224  0246  2800     R  	jmp _L38
 224  0247              _L62:
 225  0247              #line 225 "d:\htk\0530\main.c"
 225  0247  0700     E  	mov a,re
 225  0248  0080     E  	mov _builtin_holtek_mant1[2],a
 225  0249  0700     E  	mov a,rd
 225  024A  0080     E  	mov _builtin_holtek_mant1[1],a
 225  024B  0700     E  	mov a,rc
 225  024C  0080     E  	mov _builtin_holtek_mant1[0],a
 225  024D  0F40        	mov a,64
 225  024E  0080     E  	mov _builtin_holtek_mant2[2],a
"File: main.c        Assembler  Version HGASM0202      Page 24

 225  024F  0FA0        	mov a,160
 225  0250  0080     E  	mov _builtin_holtek_mant2[1],a
 225  0251  0F00        	mov a,0
 225  0252  0080     E  	mov _builtin_holtek_mant2[0],a
 225  0253              	fcall _builtin_holtek_ftsub
 225  025A  3C00     E  	sz _builtin_holtek_mant1[2].7
 225  025B  2800     R  	jmp _L42
 220  025C              #line 220 "d:\htk\0530\main.c"
 220  025C  0700     E  	mov a,rf
 220  025D  0080     R  	mov _n2[0],a
 220  025E  0700     E  	mov a,rg
 220  025F  0080     R  	mov _n2[1],a
 220  0260  0700     E  	mov a,rh
 220  0261  0080     R  	mov _n2[2],a
 220  0262  2800     R  	jmp _L38
 220  0263              _L42:
 226  0263              #line 226 "d:\htk\0530\main.c"
 226  0263  1F00     R  	clr _n2[0]
 226  0264  0FC8        	mov a,-56
 226  0265  0080     R  	mov _n2[1],a
 226  0266  0F43        	mov a,67
 226  0267  0080     R  	mov _n2[2],a
 226  0268              _L38:
 229  0268              #line 229 "d:\htk\0530\main.c"
 229  0268  0700     R  	mov a,_d[0]
 229  0269  0080     E  	mov rb,a
 229  026A  1F00     E  	clr rc
 229  026B  3F85        	sz acc.7
 229  026C  1F80     E  	set rc
 229  026D  1F00     E  	clr _builtin_holtek_mant12p[0]
 229  026E  0700     R  	mov a,_n2[2]
 229  026F  0080     E  	mov _builtin_holtek_mant1[2],a
 229  0270  0700     R  	mov a,_n2[1]
 229  0271  0080     E  	mov _builtin_holtek_mant1[1],a
 229  0272  0700     R  	mov a,_n2[0]
 229  0273  0080     E  	mov _builtin_holtek_mant1[0],a
 229  0274              	fcall _builtin_holtek_ftol
 229  027B  0700     E  	mov a,_builtin_holtek_mant12p[0]
 229  027C  0080     E  	mov rg,a
 229  027D  0700     E  	mov a,_builtin_holtek_mant1[2]
 229  027E  0080     E  	mov rf,a
 229  027F  0700     E  	mov a,_builtin_holtek_mant1[1]
 229  0280  0080     E  	mov re,a
 229  0281  0700     E  	mov a,_builtin_holtek_mant1[0]
 229  0282  0080     E  	mov rd,a
 229  0283  1B10        	rrca intc
 229  0284  3410        	clr intc.0
 229  0285  0700     E  	mov a,rb
 229  0286  00D9        	mov mduwr0,a
 229  0287  0700     E  	mov a,rd
 229  0288  00DD        	mov mduwr4,a
 229  0289  0700     E  	mov a,rc
 229  028A  00DA        	mov mduwr1,a
 229  028B  0700     E  	mov a,re
 229  028C  00DE        	mov mduwr5,a
 229  028D  0F06        	mov a,6
 229  028E              _LI9:
 229  028E  1785        	sdz acc
 229  028F  2800     R  	jmp _LI9
 229  0290  0759        	mov a,mduwr0
"File: main.c        Assembler  Version HGASM0202      Page 25

 229  0291  0080     E  	mov rb,a
 229  0292  075A        	mov a,mduwr1
 229  0293  0080     E  	mov rc,a
 229  0294  3C0A        	sz c
 229  0295  3010        	set intc.0
 229  0296  0700     E  	mov a,rb
 229  0297  0080     R  	mov _un2[0],a
 229  0298  0700     E  	mov a,rc
 229  0299  0080     R  	mov _un2[1],a
 230  029A              #line 230 "d:\htk\0530\main.c"
 230  029A  0700     E  	mov a,rb
 230  029B  809E 0001   	lmov [286],a
 231  029D              #line 231 "d:\htk\0530\main.c"
 231  029D  0700     E  	mov a,rc
 231  029E  809F 0001   	lmov [287],a
 233  02A0              #line 233 "d:\htk\0530\main.c"
 233  02A0  1F00     R  	clr _t_flag[0]
 233  02A1              _L24:
 233  02A1              #pragma debug scope 9 1
 235  02A1              #line 235 "d:\htk\0530\main.c"
 235  02A1  1E00     R  	snz _lcd_flag[0]
 235  02A2  2800     R  	jmp _L43
 236  02A3              #line 236 "d:\htk\0530\main.c"
 236  02A3              	fcall _show_LCD
 237  02AA              #line 237 "d:\htk\0530\main.c"
 237  02AA  1F00     R  	clr _lcd_flag[0]
 237  02AB              _L43:
 239  02AB              #line 239 "d:\htk\0530\main.c"
 239  02AB  0700     R  	mov a,_d[0]
 239  02AC  0E01        	and a,1
 239  02AD  0080     E  	mov ra,a
 239  02AE  0700     E  	mov a,ra
 239  02AF  0380     E  	addm a,ra
 239  02B0  3498        	clr [24].1
 239  02B1  0700     E  	mov a,ra
 239  02B2  0598        	orm a,[24]
 240  02B3              #line 240 "d:\htk\0530\main.c"
 240  02B3  3418        	clr [24].0
 242  02B4              #line 242 "d:\htk\0530\main.c"
 242  02B4  2800     R  	jmp _L44
 242  02B5  2800     R  	jmp $
 242  02B6              _main endp
 242  02B6              
 242  02B6              @dummy endp
 242  02B6              
 242  02B6              #line 242 "d:\htk\0530\main.c"
 242  02B6              #pragma debug scope 1 1
 242  02B6              public _ISR_STM0
 242  02B6              #pragma debug scope 13 1
 245  02B6              #line 245 "d:\htk\0530\main.c"
 245  02B6              rombank 0 @ISR_STM0_code
 245  0000              @ISR_STM0_code .section at 20 'code'
 245  0000  0080     E  	mov r1,a
 245  0001  070B        	mov a,bp
 245  0002  1F0B        	clr bp
 245  0003  2800     R  	jmp _ISR_STM0
 245  0004              ROMBANK 0 _ISR_STM0
 245  0004              #pragma debug scope 1 1
 245  0004              @dummy20 endp
 245  0004              #pragma debug scope 14 1
"File: main.c        Assembler  Version HGASM0202      Page 26

 245  0000              _ISR_STM0 .section 'code'
 245  0000              _ISR_STM0 proc
 245  0000  0080     E  	mov r2,a
 245  0001  070A        	mov a, status
 245  0002  0080     E  	mov r3,a
 246  0003              #line 246 "d:\htk\0530\main.c"
 246  0003  0F01        	mov a,1
 246  0004  0300     R  	add a,_c[0]
 246  0005  0080     E  	mov rb,a
 246  0006  0F00        	mov a,0
 246  0007  1300     R  	adc a,_c[1]
 246  0008  0080     E  	mov rc,a
 246  0009  0700     E  	mov a,rb
 246  000A  0080     R  	mov _c[0],a
 246  000B  0700     E  	mov a,rc
 246  000C  0080     R  	mov _c[1],a
 246  000D  0F0F        	mov a,15  
 246  000E  0680     E  	andm a,rb  
 246  000F  0F00        	mov a,0  
 246  0010  0680     E  	andm a,rc
 246  0011  0700     E  	mov a,rb
 246  0012  0500     E  	or a,rc
 246  0013  390A        	snz z
 246  0014  2800     R  	jmp _L64
 247  0015              #line 247 "d:\htk\0530\main.c"
 247  0015  0F01        	mov a,1
 247  0016  0080     R  	mov _t_flag[0],a
 247  0017              _L64:
 249  0017              #line 249 "d:\htk\0530\main.c"
 249  0017  0700     R  	mov a,_c[0]
 249  0018  0080     E  	mov rb,a
 249  0019  0700     R  	mov a,_c[1]
 249  001A  0080     E  	mov rc,a
 249  001B  0FFF        	mov a,255  
 249  001C  0680     E  	andm a,rb  
 249  001D  0F01        	mov a,1  
 249  001E  0680     E  	andm a,rc
 249  001F  0700     E  	mov a,rb
 249  0020  0500     E  	or a,rc
 249  0021  390A        	snz z
 249  0022  2800     R  	jmp _L65
 250  0023              #line 250 "d:\htk\0530\main.c"
 250  0023  0F01        	mov a,1
 250  0024  0080     R  	mov _lcd_flag[0],a
 250  0025              _L65:
 251  0025              #line 251 "d:\htk\0530\main.c"
 251  0025  37B3        	clr [51].7
 251  0026  0700     E  	mov a,r2
 251  0027  008B        	mov bp,a
 251  0028  0700     E  	mov a,r3
 251  0029  008A        	mov status,a
 251  002A  0700     E  	mov a,r1
 251  002B  0004        	reti
 251  002C              _ISR_STM0 endp
 251  002C              
 251  002C              #line 251 "d:\htk\0530\main.c"
 251  002C              #pragma debug scope 1 1
 251  002C              public _ISR_ADC
 251  002C              #pragma debug scope 15 1
 255  002C              #line 255 "d:\htk\0530\main.c"
"File: main.c        Assembler  Version HGASM0202      Page 27

 255  002C              rombank 0 @ISR_ADC_code
 255  0000              @ISR_ADC_code .section at 28 'code'
 255  0000  0080     E  	mov r1,a
 255  0001  070B        	mov a,bp
 255  0002  1F0B        	clr bp
 255  0003  2800     R  	jmp _ISR_ADC
 255  0004              ROMBANK 0 _ISR_ADC
 255  0004              #pragma debug scope 1 1
 255  0004              @dummy28 endp
 255  0004              #pragma debug scope 16 1
 255  0000              _ISR_ADC .section 'code'
 255  0000              _ISR_ADC proc
 255  0000  0080     E  	mov r2,a
 255  0001  070A        	mov a, status
 255  0002  0080     E  	mov r3,a
 256  0003              #line 256 "d:\htk\0530\main.c"
 256  0003  0768        	mov a,[104]
 256  0004  0080     E  	mov rc,a
 256  0005  1F00     E  	clr rb
 256  0006  0700     E  	mov a,rc
 256  0007  0080     R  	mov _adr[1],a
 256  0008  0767        	mov a,[103]
 256  0009  0500     E  	or a,rb
 256  000A  0080     R  	mov _adr[0],a
 257  000B              #line 257 "d:\htk\0530\main.c"
 257  000B  0700     R  	mov a,_adr[0]
 257  000C  0080     E  	mov rd,a
 257  000D  0700     R  	mov a,_adr[1]
 257  000E  0080     E  	mov re,a
 257  000F  1F00     E  	clr rf
 257  0010  1F00     E  	clr rg
 257  0011  0700     E  	mov a,rd
 257  0012  0080     E  	mov _builtin_holtek_mulsi3_2[0],a
 257  0013  0700     E  	mov a,re
 257  0014  0080     E  	mov _builtin_holtek_mulsi3_2[1],a
 257  0015  0700     E  	mov a,rf
 257  0016  0080     E  	mov _builtin_holtek_mulsi3_2[2],a
 257  0017  0700     E  	mov a,rg
 257  0018  0080     E  	mov _builtin_holtek_mulsi3_2[3],a
 257  0019  0F7A        	mov a,122
 257  001A  0080     E  	mov _builtin_holtek_mulsi3_2[4],a
 257  001B  0F00        	mov a,0
 257  001C  0080     E  	mov _builtin_holtek_mulsi3_2[5],a
 257  001D  0F00        	mov a,0
 257  001E  0080     E  	mov _builtin_holtek_mulsi3_2[6],a
 257  001F  0F00        	mov a,0
 257  0020  0080     E  	mov _builtin_holtek_mulsi3_2[7],a
 257  0021              	fcall _builtin_holtek_mulsi3
 257  0028  0700     E  	mov a,_builtin_holtek_mulsi3_2[8]
 257  0029  0080     E  	mov rd,a
 257  002A  0700     E  	mov a,_builtin_holtek_mulsi3_2[9]
 257  002B  0080     E  	mov re,a
 257  002C  0700     E  	mov a,_builtin_holtek_mulsi3_2[10]
 257  002D  0080     E  	mov rf,a
 257  002E  0700     E  	mov a,_builtin_holtek_mulsi3_2[11]
 257  002F  0080     E  	mov rg,a
 257  0030  1B10        	rrca intc
 257  0031  3410        	clr intc.0
 257  0032  0700     E  	mov a,rd
 257  0033  00D9        	mov mduwr0,a
"File: main.c        Assembler  Version HGASM0202      Page 28

 257  0034  0700     E  	mov a,re
 257  0035  00DA        	mov mduwr1,a
 257  0036  0700     E  	mov a,rf
 257  0037  00DB        	mov mduwr2,a
 257  0038  0700     E  	mov a,rg
 257  0039  00DC        	mov mduwr3,a
 257  003A  0F64        	mov a,100
 257  003B  00DD        	mov mduwr4,a
 257  003C  0F00        	mov a,0
 257  003D  00DE        	mov mduwr5,a
 257  003E  0F06        	mov a,6
 257  003F              _LI10:
 257  003F  1785        	sdz acc
 257  0040  2800     R  	jmp _LI10
 257  0041  0759        	mov a,mduwr0
 257  0042  0080     R  	mov _adv[0],a
 257  0043  075A        	mov a,mduwr1
 257  0044  0080     R  	mov _adv[1],a
 257  0045  075B        	mov a,mduwr2
 257  0046  0080     R  	mov _adv[2],a
 257  0047  075C        	mov a,mduwr3
 257  0048  0080     R  	mov _adv[3],a
 257  0049  3C0A        	sz c
 257  004A  3010        	set intc.0
 257  004B  0700     E  	mov a,r2
 257  004C  008B        	mov bp,a
 257  004D  0700     E  	mov a,r3
 257  004E  008A        	mov status,a
 257  004F  0700     E  	mov a,r1
 257  0050  0004        	reti
 257  0051              _ISR_ADC endp
 257  0051              
 257  0051              #line 257 "d:\htk\0530\main.c"
 257  0051              #pragma debug scope 1 1
 257  0051              public _adv_h_ind
 257  0000              @HCCINIT	.section 'data'
  24  0000              #line 24 "d:\htk\0530\main.c"
  24  0000              @HCCINIT_adv_h_ind .section 'data'
  24  0000              _adv_h_ind label byte
  24  0000              #pragma debug variable 8 1 _adv_h_ind "adv_h_ind"
  24  0000              	db 0
  24  0000              @ROMDATA_BASE .section inpage 'code'
  24  0000              	db 0
  24  0001              @HCCINIT_adv_h_ind .section 'data'
  24  0001              public _adv_history
  23  0001              #line 23 "d:\htk\0530\main.c"
  23  0000              @HCCINIT_adv_history .section 'data'
  23  0000              _adv_history label byte
  23  0000              #pragma debug array 43 14 8 1
  23  0000              #pragma debug array 43 14 8 1
  23  0000              #pragma debug variable 43 1 _adv_history "adv_history"
  23  0000              	db 0
  23  0001              @ROMDATA_BASE .section inpage 'code'
  23  0001              	db 0
  23  0001              @HCCINIT_adv_history .section 'data'
  23  0001              	db 0
  23  0001              @ROMDATA_BASE .section inpage 'code'
  23  0001              	db 0
  23  0002              @HCCINIT_adv_history .section 'data'
  23  0002              	db 0
"File: main.c        Assembler  Version HGASM0202      Page 29

  23  0002              @ROMDATA_BASE .section inpage 'code'
  23  0002              	db 0
  23  0003              @HCCINIT_adv_history .section 'data'
  23  0003              	db 0
  23  0002              @ROMDATA_BASE .section inpage 'code'
  23  0002              	db 0
  23  0004              @HCCINIT_adv_history .section 'data'
  23  0004              	db 0
  23  0003              @ROMDATA_BASE .section inpage 'code'
  23  0003              	db 0
  23  0005              @HCCINIT_adv_history .section 'data'
  23  0005              	db 0
  23  0003              @ROMDATA_BASE .section inpage 'code'
  23  0003              	db 0
  23  0006              @HCCINIT_adv_history .section 'data'
  23  0006              	db 0
  23  0004              @ROMDATA_BASE .section inpage 'code'
  23  0004              	db 0
  23  0007              @HCCINIT_adv_history .section 'data'
  23  0007              	db 0
  23  0004              @ROMDATA_BASE .section inpage 'code'
  23  0004              	db 0
  23  0008              @HCCINIT_adv_history .section 'data'
  23  0008              	db 0
  23  0005              @ROMDATA_BASE .section inpage 'code'
  23  0005              	db 0
  23  0009              @HCCINIT_adv_history .section 'data'
  23  0009              	db 0
  23  0005              @ROMDATA_BASE .section inpage 'code'
  23  0005              	db 0
  23  000A              @HCCINIT_adv_history .section 'data'
  23  000A              	db 0
  23  0006              @ROMDATA_BASE .section inpage 'code'
  23  0006              	db 0
  23  000B              @HCCINIT_adv_history .section 'data'
  23  000B              	db 0
  23  0006              @ROMDATA_BASE .section inpage 'code'
  23  0006              	db 0
  23  000C              @HCCINIT_adv_history .section 'data'
  23  000C              	db 0
  23  0007              @ROMDATA_BASE .section inpage 'code'
  23  0007              	db 0
  23  000D              @HCCINIT_adv_history .section 'data'
  23  000D              	db 0
  23  0007              @ROMDATA_BASE .section inpage 'code'
  23  0007              	db 0
  23  000E              @HCCINIT_adv_history .section 'data'
  23  000E              	db 0
  23  0008              @ROMDATA_BASE .section inpage 'code'
  23  0008              	db 0
  23  000F              @HCCINIT_adv_history .section 'data'
  23  000F              	db 0
  23  0008              @ROMDATA_BASE .section inpage 'code'
  23  0008              	db 0
  23  0010              @HCCINIT_adv_history .section 'data'
  23  0010              	db 0
  23  0009              @ROMDATA_BASE .section inpage 'code'
  23  0009              	db 0
  23  0011              @HCCINIT_adv_history .section 'data'
  23  0011              	db 0
"File: main.c        Assembler  Version HGASM0202      Page 30

  23  0009              @ROMDATA_BASE .section inpage 'code'
  23  0009              	db 0
  23  0012              @HCCINIT_adv_history .section 'data'
  23  0012              	db 0
  23  000A              @ROMDATA_BASE .section inpage 'code'
  23  000A              	db 0
  23  0013              @HCCINIT_adv_history .section 'data'
  23  0013              	db 0
  23  000A              @ROMDATA_BASE .section inpage 'code'
  23  000A              	db 0
  23  0014              @HCCINIT_adv_history .section 'data'
  23  0014              	db 0
  23  000B              @ROMDATA_BASE .section inpage 'code'
  23  000B              	db 0
  23  0015              @HCCINIT_adv_history .section 'data'
  23  0015              	db 0
  23  000B              @ROMDATA_BASE .section inpage 'code'
  23  000B              	db 0
  23  0016              @HCCINIT_adv_history .section 'data'
  23  0016              	db 0
  23  000C              @ROMDATA_BASE .section inpage 'code'
  23  000C              	db 0
  23  0017              @HCCINIT_adv_history .section 'data'
  23  0017              	db 0
  23  000C              @ROMDATA_BASE .section inpage 'code'
  23  000C              	db 0
  23  0018              @HCCINIT_adv_history .section 'data'
  23  0018              	db 0
  23  000D              @ROMDATA_BASE .section inpage 'code'
  23  000D              	db 0
  23  0019              @HCCINIT_adv_history .section 'data'
  23  0019              	db 0
  23  000D              @ROMDATA_BASE .section inpage 'code'
  23  000D              	db 0
  23  001A              @HCCINIT_adv_history .section 'data'
  23  001A              	db 0
  23  000E              @ROMDATA_BASE .section inpage 'code'
  23  000E              	db 0
  23  001B              @HCCINIT_adv_history .section 'data'
  23  001B              	db 0
  23  000E              @ROMDATA_BASE .section inpage 'code'
  23  000E              	db 0
  23  001C              @HCCINIT_adv_history .section 'data'
  23  001C              	db 0
  23  000F              @ROMDATA_BASE .section inpage 'code'
  23  000F              	db 0
  23  001D              @HCCINIT_adv_history .section 'data'
  23  001D              	db 0
  23  000F              @ROMDATA_BASE .section inpage 'code'
  23  000F              	db 0
  23  001E              @HCCINIT_adv_history .section 'data'
  23  001E              	db 0
  23  0010              @ROMDATA_BASE .section inpage 'code'
  23  0010              	db 0
  23  001F              @HCCINIT_adv_history .section 'data'
  23  001F              	db 0
  23  0010              @ROMDATA_BASE .section inpage 'code'
  23  0010              	db 0
  23  0020              @HCCINIT_adv_history .section 'data'
  23  0020              public _n2
"File: main.c        Assembler  Version HGASM0202      Page 31

  22  0020              #line 22 "d:\htk\0530\main.c"
  22  0000              @HCCINIT_n2 .section 'data'
  22  0000              _n2 label byte
  22  0000              #pragma debug variable 28 1 _n2 "n2"
  22  0000              	db 0,72,68	;=0x444800
  22  0011              @ROMDATA_BASE .section inpage 'code'
  22  0011              	db 0,72,68
  22  0003              @HCCINIT_n2 .section 'data'
  22  0003              public _P
  22  0003              #line 22 "d:\htk\0530\main.c"
  22  0000              @HCCINIT_P .section 'data'
  22  0000              _P label byte
  22  0000              #pragma debug variable 28 1 _P "P"
  22  0000              	db 0
  22  0012              @ROMDATA_BASE .section inpage 'code'
  22  0012              	db 0
  22  0001              @HCCINIT_P .section 'data'
  22  0001              	db 0
  22  0013              @ROMDATA_BASE .section inpage 'code'
  22  0013              	db 0
  22  0002              @HCCINIT_P .section 'data'
  22  0002              	db 0
  22  0013              @ROMDATA_BASE .section inpage 'code'
  22  0013              	db 0
  22  0003              @HCCINIT_P .section 'data'
  22  0003              public _un2
  21  0003              #line 21 "d:\htk\0530\main.c"
  21  0000              @HCCINIT_un2 .section 'data'
  21  0000              _un2 label byte
  21  0000              #pragma debug variable 12 1 _un2 "un2"
  21  0000              	dw 400
  21  0014              @ROMDATA_BASE .section inpage 'code'
  21  0014  0190        	dc 400
  21  0002              @HCCINIT_un2 .section 'data'
  21  0002              public _n1
  21  0002              #line 21 "d:\htk\0530\main.c"
  21  0000              @HCCINIT_n1 .section 'data'
  21  0000              _n1 label byte
  21  0000              #pragma debug variable 12 1 _n1 "n1"
  21  0000              	db 0
  21  0015              @ROMDATA_BASE .section inpage 'code'
  21  0015              	db 0
  21  0001              @HCCINIT_n1 .section 'data'
  21  0001              	db 0
  21  0015              @ROMDATA_BASE .section inpage 'code'
  21  0015              	db 0
  21  0002              @HCCINIT_n1 .section 'data'
  21  0002              public _off_text
  20  0002              #line 20 "d:\htk\0530\main.c"
  20  0000              @HCCINIT_off_text .section 'data'
  20  0000              _off_text label byte
  20  0000              #pragma debug array 44 8 4 1
  20  0000              #pragma debug array 44 8 4 1
  20  0000              #pragma debug variable 44 1 _off_text "off_text"
  20  0000              	db 04fh,046h,046h,00h
  20  0016              @ROMDATA_BASE .section inpage 'code'
  20  0016              	db 04fh
  20  0016              	db 046h
  20  0017              	db 046h
  20  0017              	db 00h
"File: main.c        Assembler  Version HGASM0202      Page 32

  20  0004              @HCCINIT_off_text .section 'data'
  20  0004              public _P_set
  19  0004              #line 19 "d:\htk\0530\main.c"
  19  0000              @HCCINIT_P_set .section 'data'
  19  0000              _P_set label byte
  19  0000              #pragma debug array 45 8 3 1
  19  0000              #pragma debug array 45 8 3 1
  19  0000              #pragma debug array 46 45 4 1
  19  0000              #pragma debug array 46 45 4 1
  19  0000              #pragma debug variable 46 1 _P_set "P_set"
  19  0000              	db 032h,030h,00h
  19  0018              @ROMDATA_BASE .section inpage 'code'
  19  0018              	db 032h
  19  0018              	db 030h
  19  0019              	db 00h
  19  0003              @HCCINIT_P_set .section 'data'
  19  0003              	db 032h,035h,00h
  19  0019              @ROMDATA_BASE .section inpage 'code'
  19  0019              	db 032h
  19  001A              	db 035h
  19  001A              	db 00h
  19  0006              @HCCINIT_P_set .section 'data'
  19  0006              	db 032h,039h,00h
  19  001B              @ROMDATA_BASE .section inpage 'code'
  19  001B              	db 032h
  19  001B              	db 039h
  19  001C              	db 00h
  19  0009              @HCCINIT_P_set .section 'data'
  19  0009              	db 033h,034h,00h
  19  001C              @ROMDATA_BASE .section inpage 'code'
  19  001C              	db 033h
  19  001D              	db 034h
  19  001D              	db 00h
  19  000C              @HCCINIT_P_set .section 'data'
  19  000C              public _text2
  18  000C              #line 18 "d:\htk\0530\main.c"
  18  0000              @HCCINIT_text2 .section 'data'
  18  0000              _text2 label byte
  18  0000              #pragma debug array 47 8 18 1
  18  0000              #pragma debug array 47 8 18 1
  18  0000              #pragma debug variable 47 1 _text2 "text2"
  18  0000              	db 050h,020h,073h,065h,074h,03ah,020h,020h,020h,020h,020h,020h,020h,020h,020h,020h,020h,00h
  18  001E              @ROMDATA_BASE .section inpage 'code'
  18  001E              	db 050h
  18  001E              	db 020h
  18  001F              	db 073h
  18  001F              	db 065h
  18  0020              	db 074h
  18  0020              	db 03ah
  18  0021              	db 020h
  18  0021              	db 020h
  18  0022              	db 020h
  18  0022              	db 020h
  18  0023              	db 020h
  18  0023              	db 020h
  18  0024              	db 020h
  18  0024              	db 020h
  18  0025              	db 020h
  18  0025              	db 020h
  18  0026              	db 020h
"File: main.c        Assembler  Version HGASM0202      Page 33

  18  0026              	db 00h
  18  0012              @HCCINIT_text2 .section 'data'
  18  0012              public _text
  17  0012              #line 17 "d:\htk\0530\main.c"
  17  0000              @HCCINIT_text .section 'data'
  17  0000              _text label byte
  17  0000              #pragma debug variable 47 1 _text "text"
  17  0000              	db 050h,072h,065h,073h,073h,075h,072h,065h,03ah,020h,020h,020h,020h,020h,020h,020h,020h,00h
  17  0027              @ROMDATA_BASE .section inpage 'code'
  17  0027              	db 050h
  17  0027              	db 072h
  17  0028              	db 065h
  17  0028              	db 073h
  17  0029              	db 073h
  17  0029              	db 075h
  17  002A              	db 072h
  17  002A              	db 065h
  17  002B              	db 03ah
  17  002B              	db 020h
  17  002C              	db 020h
  17  002C              	db 020h
  17  002D              	db 020h
  17  002D              	db 020h
  17  002E              	db 020h
  17  002E              	db 020h
  17  002F              	db 020h
  17  002F              	db 00h
  17  0012              @HCCINIT_text .section 'data'
  17  0012              public _test
  16  0012              #line 16 "d:\htk\0530\main.c"
  16  0000              @HCCINIT_test .section 'data'
  16  0000              _test label byte
  16  0000              #pragma debug variable 14 1 _test "test"
  16  0000              	db 0
  16  0030              @ROMDATA_BASE .section inpage 'code'
  16  0030              	db 0
  16  0001              @HCCINIT_test .section 'data'
  16  0001              	db 0
  16  0030              @ROMDATA_BASE .section inpage 'code'
  16  0030              	db 0
  16  0002              @HCCINIT_test .section 'data'
  16  0002              	db 0
  16  0031              @ROMDATA_BASE .section inpage 'code'
  16  0031              	db 0
  16  0003              @HCCINIT_test .section 'data'
  16  0003              	db 0
  16  0031              @ROMDATA_BASE .section inpage 'code'
  16  0031              	db 0
  16  0004              @HCCINIT_test .section 'data'
  16  0004              public _adv
  16  0004              #line 16 "d:\htk\0530\main.c"
  16  0000              @HCCINIT_adv .section 'data'
  16  0000              _adv label byte
  16  0000              #pragma debug variable 14 1 _adv "adv"
  16  0000              	db 0
  16  0032              @ROMDATA_BASE .section inpage 'code'
  16  0032              	db 0
  16  0001              @HCCINIT_adv .section 'data'
  16  0001              	db 0
  16  0032              @ROMDATA_BASE .section inpage 'code'
"File: main.c        Assembler  Version HGASM0202      Page 34

  16  0032              	db 0
  16  0002              @HCCINIT_adv .section 'data'
  16  0002              	db 0
  16  0033              @ROMDATA_BASE .section inpage 'code'
  16  0033              	db 0
  16  0003              @HCCINIT_adv .section 'data'
  16  0003              	db 0
  16  0033              @ROMDATA_BASE .section inpage 'code'
  16  0033              	db 0
  16  0004              @HCCINIT_adv .section 'data'
  16  0004              public _adr
  15  0004              #line 15 "d:\htk\0530\main.c"
  15  0000              @HCCINIT_adr .section 'data'
  15  0000              _adr label byte
  15  0000              #pragma debug variable 12 1 _adr "adr"
  15  0000              	db 0
  15  0034              @ROMDATA_BASE .section inpage 'code'
  15  0034              	db 0
  15  0001              @HCCINIT_adr .section 'data'
  15  0001              	db 0
  15  0034              @ROMDATA_BASE .section inpage 'code'
  15  0034              	db 0
  15  0002              @HCCINIT_adr .section 'data'
  15  0002              public _hold
  14  0002              #line 14 "d:\htk\0530\main.c"
  14  0000              @HCCINIT_hold .section 'data'
  14  0000              _hold label byte
  14  0000              #pragma debug variable 7 1 _hold "hold"
  14  0000              	db 0
  14  0035              @ROMDATA_BASE .section inpage 'code'
  14  0035              	db 0
  14  0001              @HCCINIT_hold .section 'data'
  14  0001              public _key_hold
  14  0001              #line 14 "d:\htk\0530\main.c"
  14  0000              @HCCINIT_key_hold .section 'data'
  14  0000              _key_hold label byte
  14  0000              #pragma debug variable 7 1 _key_hold "key_hold"
  14  0000              	db 15
  14  0035              @ROMDATA_BASE .section inpage 'code'
  14  0035              	db 15
  14  0001              @HCCINIT_key_hold .section 'data'
  14  0001              public _key
  14  0001              #line 14 "d:\htk\0530\main.c"
  14  0000              @HCCINIT_key .section 'data'
  14  0000              _key label byte
  14  0000              #pragma debug variable 7 1 _key "key"
  14  0000              	db 15
  14  0036              @ROMDATA_BASE .section inpage 'code'
  14  0036              	db 15
  14  0001              @HCCINIT_key .section 'data'
  14  0001              public _t
  13  0001              #line 13 "d:\htk\0530\main.c"
  13  0000              @HCCINIT_t .section 'data'
  13  0000              _t label byte
  13  0000              #pragma debug variable 7 1 _t "t"
  13  0000              	db 0
  13  0036              @ROMDATA_BASE .section inpage 'code'
  13  0036              	db 0
  13  0001              @HCCINIT_t .section 'data'
  13  0001              public _d
"File: main.c        Assembler  Version HGASM0202      Page 35

  13  0001              #line 13 "d:\htk\0530\main.c"
  13  0000              @HCCINIT_d .section 'data'
  13  0000              _d label byte
  13  0000              #pragma debug variable 7 1 _d "d"
  13  0000              	db 1
  13  0037              @ROMDATA_BASE .section inpage 'code'
  13  0037              	db 1
  13  0001              @HCCINIT_d .section 'data'
  13  0001              public _lcd_flag
  13  0001              #line 13 "d:\htk\0530\main.c"
  13  0000              @HCCINIT_lcd_flag .section 'data'
  13  0000              _lcd_flag label byte
  13  0000              #pragma debug variable 7 1 _lcd_flag "lcd_flag"
  13  0000              	db 0
  13  0037              @ROMDATA_BASE .section inpage 'code'
  13  0037              	db 0
  13  0001              @HCCINIT_lcd_flag .section 'data'
  13  0001              public _t_flag
  13  0001              #line 13 "d:\htk\0530\main.c"
  13  0000              @HCCINIT_t_flag .section 'data'
  13  0000              _t_flag label byte
  13  0000              #pragma debug variable 7 1 _t_flag "t_flag"
  13  0000              	db 0
  13  0038              @ROMDATA_BASE .section inpage 'code'
  13  0038              	db 0
  13  0001              @HCCINIT_t_flag .section 'data'
  13  0001              public _i
  12  0001              #line 12 "d:\htk\0530\main.c"
  12  0000              @HCCINIT_i .section 'data'
  12  0000              _i label byte
  12  0000              #pragma debug variable 12 1 _i "i"
  12  0000              	db 0
  12  0038              @ROMDATA_BASE .section inpage 'code'
  12  0038              	db 0
  12  0001              @HCCINIT_i .section 'data'
  12  0001              	db 0
  12  0039              @ROMDATA_BASE .section inpage 'code'
  12  0039              	db 0
  12  0002              @HCCINIT_i .section 'data'
  12  0002              public _c
  12  0002              #line 12 "d:\htk\0530\main.c"
  12  0000              @HCCINIT_c .section 'data'
  12  0000              _c label byte
  12  0000              #pragma debug variable 12 1 _c "c"
  12  0000              	db 0
  12  0039              @ROMDATA_BASE .section inpage 'code'
  12  0039              	db 0
  12  0001              @HCCINIT_c .section 'data'
  12  0001              	db 0
  12  003A              @ROMDATA_BASE .section inpage 'code'
  12  003A              	db 0
  12  0002              @HCCINIT_c .section 'data'
  12  0002              public _s
  11  0002              #line 11 "d:\htk\0530\main.c"
  11  0000              @HCCINIT_s .section 'data'
  11  0000              _s label byte
  11  0000              #pragma debug variable 12 1 _s "s"
  11  0000              	dw 25
  11  003A              @ROMDATA_BASE .section inpage 'code'
  11  003A  0019        	dc 25
"File: main.c        Assembler  Version HGASM0202      Page 36

  11  0002              @HCCINIT_s .section 'data'
  11  0002              #pragma debug struct_end
  11  0002              #pragma debug struct_end
  11  0002              #pragma debug union_end
  11  0002              #pragma debug union_end
  11  0002              #pragma debug variable 49 1 ___intc0 "__intc0" 1
  11  0002              #pragma debug struct_end
  11  0002              #pragma debug struct_end
  11  0002              #pragma debug union_end
  11  0002              #pragma debug union_end
  11  0002              #pragma debug variable 51 1 ___intc1 "__intc1" 1
  11  0002              #pragma debug struct_end
  11  0002              #pragma debug struct_end
  11  0002              #pragma debug union_end
  11  0002              #pragma debug union_end
  11  0002              #pragma debug variable 53 1 ___pa "__pa" 1
  11  0002              #pragma debug struct_end
  11  0002              #pragma debug struct_end
  11  0002              #pragma debug union_end
  11  0002              #pragma debug union_end
  11  0002              #pragma debug variable 55 1 ___pac "__pac" 1
  11  0002              #pragma debug struct_end
  11  0002              #pragma debug struct_end
  11  0002              #pragma debug union_end
  11  0002              #pragma debug union_end
  11  0002              #pragma debug variable 57 1 ___pb "__pb" 1
  11  0002              #pragma debug struct_end
  11  0002              #pragma debug struct_end
  11  0002              #pragma debug union_end
  11  0002              #pragma debug union_end
  11  0002              #pragma debug variable 59 1 ___pbc "__pbc" 1
  11  0002              #pragma debug struct_end
  11  0002              #pragma debug struct_end
  11  0002              #pragma debug union_end
  11  0002              #pragma debug union_end
  11  0002              #pragma debug variable 61 1 ___pcc "__pcc" 1
  11  0002              #pragma debug struct_end
  11  0002              #pragma debug struct_end
  11  0002              #pragma debug union_end
  11  0002              #pragma debug union_end
  11  0002              #pragma debug variable 63 1 ___pdc "__pdc" 1
  11  0002              #pragma debug struct_end
  11  0002              #pragma debug struct_end
  11  0002              #pragma debug union_end
  11  0002              #pragma debug union_end
  11  0002              #pragma debug variable 65 1 ___pe "__pe" 1
  11  0002              #pragma debug struct_end
  11  0002              #pragma debug struct_end
  11  0002              #pragma debug union_end
  11  0002              #pragma debug union_end
  11  0002              #pragma debug variable 67 1 ___pec "__pec" 1
  11  0002              #pragma debug struct_end
  11  0002              #pragma debug struct_end
  11  0002              #pragma debug union_end
  11  0002              #pragma debug union_end
  11  0002              #pragma debug variable 69 1 ___pfc "__pfc" 1
  11  0002              #pragma debug struct_end
  11  0002              #pragma debug struct_end
  11  0002              #pragma debug union_end
  11  0002              #pragma debug union_end
"File: main.c        Assembler  Version HGASM0202      Page 37

  11  0002              #pragma debug variable 71 1 ___mfi0 "__mfi0" 1
  11  0002              #pragma debug struct_end
  11  0002              #pragma debug struct_end
  11  0002              #pragma debug union_end
  11  0002              #pragma debug union_end
  11  0002              #pragma debug variable 73 1 ___wdtc "__wdtc" 1
  11  0002              #pragma debug struct_end
  11  0002              #pragma debug struct_end
  11  0002              #pragma debug union_end
  11  0002              #pragma debug union_end
  11  0002              #pragma debug variable 75 1 ___stm0c0 "__stm0c0" 1
  11  0002              #pragma debug struct_end
  11  0002              #pragma debug struct_end
  11  0002              #pragma debug union_end
  11  0002              #pragma debug union_end
  11  0002              #pragma debug variable 77 1 ___stm0c1 "__stm0c1" 1
  11  0002              #pragma debug variable 8 1 ___stm0al "__stm0al" 1
  11  0002              #pragma debug variable 8 1 ___stm0ah "__stm0ah" 1
  11  0002              #pragma debug variable 8 1 ___sadol "__sadol" 1
  11  0002              #pragma debug variable 8 1 ___sadoh "__sadoh" 1
  11  0002              #pragma debug struct_end
  11  0002              #pragma debug struct_end
  11  0002              #pragma debug union_end
  11  0002              #pragma debug union_end
  11  0002              #pragma debug variable 79 1 ___sadc0 "__sadc0" 1
  11  0002              #pragma debug struct_end
  11  0002              #pragma debug struct_end
  11  0002              #pragma debug union_end
  11  0002              #pragma debug union_end
  11  0002              #pragma debug variable 81 1 ___sadc1 "__sadc1" 1
  11  0002              #pragma debug struct_end
  11  0002              #pragma debug struct_end
  11  0002              #pragma debug union_end
  11  0002              #pragma debug union_end
  11  0002              #pragma debug variable 83 1 ___sadc2 "__sadc2" 1
  11  0002              #pragma debug struct_end
  11  0002              #pragma debug struct_end
  11  0002              #pragma debug union_end
  11  0002              #pragma debug union_end
  11  0002              #pragma debug variable 85 1 ___ptm1c0 "__ptm1c0" 1
  11  0002              #pragma debug struct_end
  11  0002              #pragma debug struct_end
  11  0002              #pragma debug union_end
  11  0002              #pragma debug union_end
  11  0002              #pragma debug variable 87 1 ___ptm1c1 "__ptm1c1" 1
  11  0002              #pragma debug variable 8 1 ___ptm1al "__ptm1al" 1
  11  0002              #pragma debug variable 8 1 ___ptm1ah "__ptm1ah" 1
  11  0002              #pragma debug struct_end
  11  0002              #pragma debug struct_end
  11  0002              #pragma debug union_end
  11  0002              #pragma debug union_end
  11  0002              #pragma debug variable 89 1 ___ptm1rpl "__ptm1rpl" 1
  11  0002              #pragma debug struct_end
  11  0002              #pragma debug struct_end
  11  0002              #pragma debug union_end
  11  0002              #pragma debug union_end
  11  0002              #pragma debug variable 91 1 ___ptm1rph "__ptm1rph" 1
  11  0002              #pragma debug struct_end
  11  0002              #pragma debug struct_end
  11  0002              #pragma debug union_end
"File: main.c        Assembler  Version HGASM0202      Page 38

  11  0002              #pragma debug union_end
  11  0002              #pragma debug variable 93 1 ___pcs1 "__pcs1" 1
  11  0002              #pragma debug struct_end
  11  0002              #pragma debug struct_end
  11  0002              #pragma debug union_end
  11  0002              #pragma debug union_end
  11  0002              #pragma debug variable 95 1 ___pds0 "__pds0" 1
  11  0002              extern r1:byte
  11  0002              extern r2:byte
  11  0002              extern r3:byte
 130  0002              #line 130 "d:\htk\0530\main.c"
 130  0000              @code .section at 0 'code'
 130  0000  1F0B        	clr bp
 130  0001  2800     R  	jmp _main_startup1
 130  0002              
 130  0002              extern _builtin_holtek_mulsi3_2:byte
 130  0002              extern _builtin_holtek_mulsi3:near
 130  0002              extern _builtin_holtek_udivmodsi4_2:byte
 130  0002              extern _builtin_holtek_udivmodsi4:near
 130  0002              extern _qsort_2:byte
 130  0002              extern _qsort:near
 130  0002              extern _builtin_holtek_mant1:byte
 130  0002              extern _builtin_holtek_mant12p:byte
 130  0002              extern _builtin_holtek_ftol:near
 130  0002              extern _LCD_Cmd:near
 130  0002              extern _delay_ms_2:byte
 130  0002              extern _delay_ms:near
 130  0002              extern _LCD_Senddata:near
 130  0002              extern _builtin_holtek_ltod:near
 130  0002              extern _builtin_holtek_mant2:byte
 130  0002              extern _builtin_holtek_dtmul:near
 130  0002              extern _builtin_holtek_dtsub:near
 130  0002              extern _LCD_Reset:near
 130  0002              extern _builtin_holtek_signs:byte
 130  0002              extern _builtin_holtek_uitof:near
 130  0002              extern _builtin_holtek_ftsub:near
 130  0002              extern _builtin_holtek_ftmul:near
 130  0002              extern _builtin_holtek_ftadd:near
 130  0002              
 130  0002              ; 
 130  0002              ; Generated by holtek-gcc v3.19, Thu Jul 11 10:17:59 2024
 130  0002              ; Rebuild 718
 130  0002              ; end of file


        0 Errors, 0